; Listing generated by Microsoft (R) Optimizing Compiler Version 16.00.30319.01 

	TITLE	C:\Users\Javis\Documents\GitHub\autoscan\Launcher\Launcher\ScanDir.cpp
	.686P
	.XMM
	include listing.inc
	.model	flat

INCLUDELIB OLDNAMES

PUBLIC	??_R4?$numpunct@D@std@@6B@			; std::numpunct<char>::`RTTI Complete Object Locator'
PUBLIC	??_R3?$numpunct@D@std@@8			; std::numpunct<char>::`RTTI Class Hierarchy Descriptor'
PUBLIC	??_R2?$numpunct@D@std@@8			; std::numpunct<char>::`RTTI Base Class Array'
PUBLIC	??_R1A@?0A@EA@?$numpunct@D@std@@8		; std::numpunct<char>::`RTTI Base Class Descriptor at (0,-1,0,64)'
PUBLIC	??_R0?AV?$numpunct@D@std@@@8			; std::numpunct<char> `RTTI Type Descriptor'
PUBLIC	??_R4?$codecvt@DDH@std@@6B@			; std::codecvt<char,char,int>::`RTTI Complete Object Locator'
PUBLIC	??_R3?$codecvt@DDH@std@@8			; std::codecvt<char,char,int>::`RTTI Class Hierarchy Descriptor'
PUBLIC	??_R2?$codecvt@DDH@std@@8			; std::codecvt<char,char,int>::`RTTI Base Class Array'
PUBLIC	??_R1A@?0A@EA@?$codecvt@DDH@std@@8		; std::codecvt<char,char,int>::`RTTI Base Class Descriptor at (0,-1,0,64)'
PUBLIC	??_R0?AV?$codecvt@DDH@std@@@8			; std::codecvt<char,char,int> `RTTI Type Descriptor'
PUBLIC	??_R4?$num_put@DV?$ostreambuf_iterator@DU?$char_traits@D@std@@@std@@@std@@6B@ ; std::num_put<char,std::ostreambuf_iterator<char,std::char_traits<char> > >::`RTTI Complete Object Locator'
PUBLIC	??_R3?$num_put@DV?$ostreambuf_iterator@DU?$char_traits@D@std@@@std@@@std@@8 ; std::num_put<char,std::ostreambuf_iterator<char,std::char_traits<char> > >::`RTTI Class Hierarchy Descriptor'
PUBLIC	??_R2?$num_put@DV?$ostreambuf_iterator@DU?$char_traits@D@std@@@std@@@std@@8 ; std::num_put<char,std::ostreambuf_iterator<char,std::char_traits<char> > >::`RTTI Base Class Array'
PUBLIC	??_R1A@?0A@EA@?$num_put@DV?$ostreambuf_iterator@DU?$char_traits@D@std@@@std@@@std@@8 ; std::num_put<char,std::ostreambuf_iterator<char,std::char_traits<char> > >::`RTTI Base Class Descriptor at (0,-1,0,64)'
PUBLIC	??_R0?AV?$num_put@DV?$ostreambuf_iterator@DU?$char_traits@D@std@@@std@@@std@@@8 ; std::num_put<char,std::ostreambuf_iterator<char,std::char_traits<char> > > `RTTI Type Descriptor'
PUBLIC	??_R4failure@ios_base@std@@6B@			; std::ios_base::failure::`RTTI Complete Object Locator'
PUBLIC	??_R3failure@ios_base@std@@8			; std::ios_base::failure::`RTTI Class Hierarchy Descriptor'
PUBLIC	??_R2failure@ios_base@std@@8			; std::ios_base::failure::`RTTI Base Class Array'
PUBLIC	??_R1A@?0A@EA@failure@ios_base@std@@8		; std::ios_base::failure::`RTTI Base Class Descriptor at (0,-1,0,64)'
PUBLIC	??_R4system_error@std@@6B@			; std::system_error::`RTTI Complete Object Locator'
PUBLIC	??_R3system_error@std@@8			; std::system_error::`RTTI Class Hierarchy Descriptor'
PUBLIC	??_R2system_error@std@@8			; std::system_error::`RTTI Base Class Array'
PUBLIC	??_R1A@?0A@EA@system_error@std@@8		; std::system_error::`RTTI Base Class Descriptor at (0,-1,0,64)'
PUBLIC	??_R4?$ctype@_W@std@@6B@			; std::ctype<wchar_t>::`RTTI Complete Object Locator'
PUBLIC	??_R3?$ctype@_W@std@@8				; std::ctype<wchar_t>::`RTTI Class Hierarchy Descriptor'
PUBLIC	??_R2?$ctype@_W@std@@8				; std::ctype<wchar_t>::`RTTI Base Class Array'
PUBLIC	??_R1A@?0A@EA@?$ctype@_W@std@@8			; std::ctype<wchar_t>::`RTTI Base Class Descriptor at (0,-1,0,64)'
PUBLIC	??_R0?AV?$ctype@_W@std@@@8			; std::ctype<wchar_t> `RTTI Type Descriptor'
PUBLIC	??_R4?$ctype@D@std@@6B@				; std::ctype<char>::`RTTI Complete Object Locator'
PUBLIC	??_R3?$ctype@D@std@@8				; std::ctype<char>::`RTTI Class Hierarchy Descriptor'
PUBLIC	??_R2?$ctype@D@std@@8				; std::ctype<char>::`RTTI Base Class Array'
PUBLIC	??_R1A@?0A@EA@?$ctype@D@std@@8			; std::ctype<char>::`RTTI Base Class Descriptor at (0,-1,0,64)'
PUBLIC	??_R0?AV?$ctype@D@std@@@8			; std::ctype<char> `RTTI Type Descriptor'
PUBLIC	??_R4ctype_base@std@@6B@			; std::ctype_base::`RTTI Complete Object Locator'
PUBLIC	??_R3ctype_base@std@@8				; std::ctype_base::`RTTI Class Hierarchy Descriptor'
PUBLIC	??_R2ctype_base@std@@8				; std::ctype_base::`RTTI Base Class Array'
PUBLIC	??_R1A@?0A@EA@ctype_base@std@@8			; std::ctype_base::`RTTI Base Class Descriptor at (0,-1,0,64)'
PUBLIC	??_R0?AUctype_base@std@@@8			; std::ctype_base `RTTI Type Descriptor'
PUBLIC	??_R4codecvt_base@std@@6B@			; std::codecvt_base::`RTTI Complete Object Locator'
PUBLIC	??_R3codecvt_base@std@@8			; std::codecvt_base::`RTTI Class Hierarchy Descriptor'
PUBLIC	??_R2codecvt_base@std@@8			; std::codecvt_base::`RTTI Base Class Array'
PUBLIC	??_R1A@?0A@EA@codecvt_base@std@@8		; std::codecvt_base::`RTTI Base Class Descriptor at (0,-1,0,64)'
PUBLIC	??_R0?AVcodecvt_base@std@@@8			; std::codecvt_base `RTTI Type Descriptor'
PUBLIC	??_R4facet@locale@std@@6B@			; std::locale::facet::`RTTI Complete Object Locator'
PUBLIC	??_R3facet@locale@std@@8			; std::locale::facet::`RTTI Class Hierarchy Descriptor'
PUBLIC	??_R2facet@locale@std@@8			; std::locale::facet::`RTTI Base Class Array'
PUBLIC	??_R1A@?0A@EA@facet@locale@std@@8		; std::locale::facet::`RTTI Base Class Descriptor at (0,-1,0,64)'
PUBLIC	??_R0?AVfacet@locale@std@@@8			; std::locale::facet `RTTI Type Descriptor'
PUBLIC	??_R4runtime_error@std@@6B@			; std::runtime_error::`RTTI Complete Object Locator'
PUBLIC	??_R3runtime_error@std@@8			; std::runtime_error::`RTTI Class Hierarchy Descriptor'
PUBLIC	??_R2runtime_error@std@@8			; std::runtime_error::`RTTI Base Class Array'
PUBLIC	??_R1A@?0A@EA@runtime_error@std@@8		; std::runtime_error::`RTTI Base Class Descriptor at (0,-1,0,64)'
PUBLIC	??_R4?$basic_ofstream@DU?$char_traits@D@std@@@std@@6B@ ; std::basic_ofstream<char,std::char_traits<char> >::`RTTI Complete Object Locator'
PUBLIC	??_R3?$basic_ofstream@DU?$char_traits@D@std@@@std@@8 ; std::basic_ofstream<char,std::char_traits<char> >::`RTTI Class Hierarchy Descriptor'
PUBLIC	??_R2?$basic_ofstream@DU?$char_traits@D@std@@@std@@8 ; std::basic_ofstream<char,std::char_traits<char> >::`RTTI Base Class Array'
PUBLIC	??_R1A@?0A@EA@?$basic_ofstream@DU?$char_traits@D@std@@@std@@8 ; std::basic_ofstream<char,std::char_traits<char> >::`RTTI Base Class Descriptor at (0,-1,0,64)'
PUBLIC	??_R0?AV?$basic_ofstream@DU?$char_traits@D@std@@@std@@@8 ; std::basic_ofstream<char,std::char_traits<char> > `RTTI Type Descriptor'
PUBLIC	??_R4?$basic_filebuf@DU?$char_traits@D@std@@@std@@6B@ ; std::basic_filebuf<char,std::char_traits<char> >::`RTTI Complete Object Locator'
PUBLIC	??_R3?$basic_filebuf@DU?$char_traits@D@std@@@std@@8 ; std::basic_filebuf<char,std::char_traits<char> >::`RTTI Class Hierarchy Descriptor'
PUBLIC	??_R2?$basic_filebuf@DU?$char_traits@D@std@@@std@@8 ; std::basic_filebuf<char,std::char_traits<char> >::`RTTI Base Class Array'
PUBLIC	??_R1A@?0A@EA@?$basic_filebuf@DU?$char_traits@D@std@@@std@@8 ; std::basic_filebuf<char,std::char_traits<char> >::`RTTI Base Class Descriptor at (0,-1,0,64)'
PUBLIC	??_R0?AV?$basic_filebuf@DU?$char_traits@D@std@@@std@@@8 ; std::basic_filebuf<char,std::char_traits<char> > `RTTI Type Descriptor'
PUBLIC	??_R4?$basic_ostream@DU?$char_traits@D@std@@@std@@6B@ ; std::basic_ostream<char,std::char_traits<char> >::`RTTI Complete Object Locator'
PUBLIC	??_R3?$basic_ostream@DU?$char_traits@D@std@@@std@@8 ; std::basic_ostream<char,std::char_traits<char> >::`RTTI Class Hierarchy Descriptor'
PUBLIC	??_R2?$basic_ostream@DU?$char_traits@D@std@@@std@@8 ; std::basic_ostream<char,std::char_traits<char> >::`RTTI Base Class Array'
PUBLIC	??_R17A@3EA@?$_Iosb@H@std@@8			; std::_Iosb<int>::`RTTI Base Class Descriptor at (8,0,4,64)'
PUBLIC	??_R1A@A@3EA@ios_base@std@@8			; std::ios_base::`RTTI Base Class Descriptor at (0,0,4,64)'
PUBLIC	??_R1A@A@3FA@?$basic_ios@DU?$char_traits@D@std@@@std@@8 ; std::basic_ios<char,std::char_traits<char> >::`RTTI Base Class Descriptor at (0,0,4,80)'
PUBLIC	??_R1A@?0A@EA@?$basic_ostream@DU?$char_traits@D@std@@@std@@8 ; std::basic_ostream<char,std::char_traits<char> >::`RTTI Base Class Descriptor at (0,-1,0,64)'
PUBLIC	??_R0?AV?$basic_ostream@DU?$char_traits@D@std@@@std@@@8 ; std::basic_ostream<char,std::char_traits<char> > `RTTI Type Descriptor'
PUBLIC	??_R4?$basic_streambuf@DU?$char_traits@D@std@@@std@@6B@ ; std::basic_streambuf<char,std::char_traits<char> >::`RTTI Complete Object Locator'
PUBLIC	??_R3?$basic_streambuf@DU?$char_traits@D@std@@@std@@8 ; std::basic_streambuf<char,std::char_traits<char> >::`RTTI Class Hierarchy Descriptor'
PUBLIC	??_R2?$basic_streambuf@DU?$char_traits@D@std@@@std@@8 ; std::basic_streambuf<char,std::char_traits<char> >::`RTTI Base Class Array'
PUBLIC	??_R1A@?0A@EA@?$basic_streambuf@DU?$char_traits@D@std@@@std@@8 ; std::basic_streambuf<char,std::char_traits<char> >::`RTTI Base Class Descriptor at (0,-1,0,64)'
PUBLIC	??_R0?AV?$basic_streambuf@DU?$char_traits@D@std@@@std@@@8 ; std::basic_streambuf<char,std::char_traits<char> > `RTTI Type Descriptor'
PUBLIC	??_R4?$basic_ios@DU?$char_traits@D@std@@@std@@6B@ ; std::basic_ios<char,std::char_traits<char> >::`RTTI Complete Object Locator'
PUBLIC	??_R3?$basic_ios@DU?$char_traits@D@std@@@std@@8	; std::basic_ios<char,std::char_traits<char> >::`RTTI Class Hierarchy Descriptor'
PUBLIC	??_R2?$basic_ios@DU?$char_traits@D@std@@@std@@8	; std::basic_ios<char,std::char_traits<char> >::`RTTI Base Class Array'
PUBLIC	??_R1A@?0A@EA@?$basic_ios@DU?$char_traits@D@std@@@std@@8 ; std::basic_ios<char,std::char_traits<char> >::`RTTI Base Class Descriptor at (0,-1,0,64)'
PUBLIC	??_R0?AV?$basic_ios@DU?$char_traits@D@std@@@std@@@8 ; std::basic_ios<char,std::char_traits<char> > `RTTI Type Descriptor'
PUBLIC	??_R4ios_base@std@@6B@				; std::ios_base::`RTTI Complete Object Locator'
PUBLIC	??_R3ios_base@std@@8				; std::ios_base::`RTTI Class Hierarchy Descriptor'
PUBLIC	??_R2ios_base@std@@8				; std::ios_base::`RTTI Base Class Array'
PUBLIC	??_R17?0A@EA@?$_Iosb@H@std@@8			; std::_Iosb<int>::`RTTI Base Class Descriptor at (8,-1,0,64)'
PUBLIC	??_R3?$_Iosb@H@std@@8				; std::_Iosb<int>::`RTTI Class Hierarchy Descriptor'
PUBLIC	??_R2?$_Iosb@H@std@@8				; std::_Iosb<int>::`RTTI Base Class Array'
PUBLIC	??_R1A@?0A@EA@?$_Iosb@H@std@@8			; std::_Iosb<int>::`RTTI Base Class Descriptor at (0,-1,0,64)'
PUBLIC	??_R0?AV?$_Iosb@H@std@@@8			; std::_Iosb<int> `RTTI Type Descriptor'
PUBLIC	??_R1A@?0A@EA@ios_base@std@@8			; std::ios_base::`RTTI Base Class Descriptor at (0,-1,0,64)'
PUBLIC	??_R0?AVios_base@std@@@8			; std::ios_base `RTTI Type Descriptor'
PUBLIC	??_R4bad_alloc@std@@6B@				; std::bad_alloc::`RTTI Complete Object Locator'
PUBLIC	??_R3bad_alloc@std@@8				; std::bad_alloc::`RTTI Class Hierarchy Descriptor'
PUBLIC	??_R2bad_alloc@std@@8				; std::bad_alloc::`RTTI Base Class Array'
PUBLIC	??_R1A@?0A@EA@exception@std@@8			; std::exception::`RTTI Base Class Descriptor at (0,-1,0,64)'
PUBLIC	??_R3exception@std@@8				; std::exception::`RTTI Class Hierarchy Descriptor'
PUBLIC	??_R2exception@std@@8				; std::exception::`RTTI Base Class Array'
PUBLIC	??_R1A@?0A@EA@bad_alloc@std@@8			; std::bad_alloc::`RTTI Base Class Descriptor at (0,-1,0,64)'
PUBLIC	?is@?$ctype@D@std@@QBE_NFD@Z			; std::ctype<char>::is
PUBLIC	?_Gnpreinc@?$basic_streambuf@DU?$char_traits@D@std@@@std@@IAEPADXZ ; std::basic_streambuf<char,std::char_traits<char> >::_Gnpreinc
PUBLIC	?snextc@?$basic_streambuf@DU?$char_traits@D@std@@@std@@QAEHXZ ; std::basic_streambuf<char,std::char_traits<char> >::snextc
PUBLIC	?_Ipfx@?$basic_istream@DU?$char_traits@D@std@@@std@@QAE_N_N@Z ; std::basic_istream<char,std::char_traits<char> >::_Ipfx
PUBLIC	??0_Sentry_base@?$basic_istream@DU?$char_traits@D@std@@@std@@QAE@AAV12@@Z ; std::basic_istream<char,std::char_traits<char> >::_Sentry_base::_Sentry_base
PUBLIC	??0sentry@?$basic_istream@DU?$char_traits@D@std@@@std@@QAE@AAV12@_N@Z ; std::basic_istream<char,std::char_traits<char> >::sentry::sentry
PUBLIC	??Bsentry@?$basic_istream@DU?$char_traits@D@std@@@std@@QBEPQ_Bool_struct@2@HXZ ; std::basic_istream<char,std::char_traits<char> >::sentry::operator int std::_Bool_struct::*
PUBLIC	??1_Sentry_base@?$basic_istream@DU?$char_traits@D@std@@@std@@QAE@XZ ; std::basic_istream<char,std::char_traits<char> >::_Sentry_base::~_Sentry_base
PUBLIC	??1sentry@?$basic_istream@DU?$char_traits@D@std@@@std@@QAE@XZ ; std::basic_istream<char,std::char_traits<char> >::sentry::~sentry
PUBLIC	?sbumpc@?$basic_streambuf@DU?$char_traits@D@std@@@std@@QAEHXZ ; std::basic_streambuf<char,std::char_traits<char> >::sbumpc
PUBLIC	?sgetc@?$basic_streambuf@DU?$char_traits@D@std@@@std@@QAEHXZ ; std::basic_streambuf<char,std::char_traits<char> >::sgetc
PUBLIC	?get@?$basic_istream@DU?$char_traits@D@std@@@std@@QAEHXZ ; std::basic_istream<char,std::char_traits<char> >::get
PUBLIC	?getloc@?$basic_streambuf@DU?$char_traits@D@std@@@std@@QBE?AVlocale@2@XZ ; std::basic_streambuf<char,std::char_traits<char> >::getloc
PUBLIC	?open@?$basic_filebuf@DU?$char_traits@D@std@@@std@@QAEPAV12@PBDHH@Z ; std::basic_filebuf<char,std::char_traits<char> >::open
PUBLIC	?open@?$basic_ofstream@DU?$char_traits@D@std@@@std@@QAEXPBDHH@Z ; std::basic_ofstream<char,std::char_traits<char> >::open
PUBLIC	?close@?$basic_ofstream@DU?$char_traits@D@std@@@std@@QAEXXZ ; std::basic_ofstream<char,std::char_traits<char> >::close
PUBLIC	?find@?$char_traits@D@std@@SAPBDPBDIABD@Z	; std::char_traits<char>::find
PUBLIC	?find_last_of@?$basic_string@DU?$char_traits@D@std@@V?$allocator@D@2@@std@@QBEIPBDII@Z ; std::basic_string<char,std::char_traits<char>,std::allocator<char> >::find_last_of
PUBLIC	?find_last_of@?$basic_string@DU?$char_traits@D@std@@V?$allocator@D@2@@std@@QBEIPBDI@Z ; std::basic_string<char,std::char_traits<char>,std::allocator<char> >::find_last_of
PUBLIC	?length@?$basic_string@DU?$char_traits@D@std@@V?$allocator@D@2@@std@@QBEIXZ ; std::basic_string<char,std::char_traits<char>,std::allocator<char> >::length
PUBLIC	?put@?$num_put@DV?$ostreambuf_iterator@DU?$char_traits@D@std@@@std@@@std@@QBE?AV?$ostreambuf_iterator@DU?$char_traits@D@std@@@2@V32@AAVios_base@2@DPBX@Z ; std::num_put<char,std::ostreambuf_iterator<char,std::char_traits<char> > >::put
PUBLIC	??6?$basic_ostream@DU?$char_traits@D@std@@@std@@QAEAAV01@PBX@Z ; std::basic_ostream<char,std::char_traits<char> >::operator<<
PUBLIC	?put@?$basic_ostream@_WU?$char_traits@_W@std@@@std@@QAEAAV12@_W@Z ; std::basic_ostream<wchar_t,std::char_traits<wchar_t> >::put
PUBLIC	?endl@std@@YAAAV?$basic_ostream@_WU?$char_traits@_W@std@@@1@AAV21@@Z ; std::endl
PUBLIC	??6?$basic_ostream@_WU?$char_traits@_W@std@@@std@@QAEAAV01@P6AAAV01@AAV01@@Z@Z ; std::basic_ostream<wchar_t,std::char_traits<wchar_t> >::operator<<
PUBLIC	?length@?$char_traits@_W@std@@SAIPB_W@Z		; std::char_traits<wchar_t>::length
PUBLIC	?_Inside@?$basic_string@_WU?$char_traits@_W@std@@V?$allocator@_W@2@@std@@QAE_NPB_W@Z ; std::basic_string<wchar_t,std::char_traits<wchar_t>,std::allocator<wchar_t> >::_Inside
PUBLIC	?assign@?$basic_string@_WU?$char_traits@_W@std@@V?$allocator@_W@2@@std@@QAEAAV12@PB_WI@Z ; std::basic_string<wchar_t,std::char_traits<wchar_t>,std::allocator<wchar_t> >::assign
PUBLIC	?assign@?$basic_string@_WU?$char_traits@_W@std@@V?$allocator@_W@2@@std@@QAEAAV12@PB_W@Z ; std::basic_string<wchar_t,std::char_traits<wchar_t>,std::allocator<wchar_t> >::assign
PUBLIC	??0?$basic_string@_WU?$char_traits@_W@std@@V?$allocator@_W@2@@std@@QAE@PB_W@Z ; std::basic_string<wchar_t,std::char_traits<wchar_t>,std::allocator<wchar_t> >::basic_string<wchar_t,std::char_traits<wchar_t>,std::allocator<wchar_t> >
PUBLIC	?widen@?$ctype@_W@std@@QBE_WD@Z			; std::ctype<wchar_t>::widen
PUBLIC	?_Init@?$ctype@_W@std@@IAEXABV_Locinfo@2@@Z	; std::ctype<wchar_t>::_Init
PUBLIC	?do_is@?$ctype@_W@std@@MBE_NF_W@Z		; std::ctype<wchar_t>::do_is
PUBLIC	?do_is@?$ctype@_W@std@@MBEPB_WPB_W0PAF@Z	; std::ctype<wchar_t>::do_is
PUBLIC	?do_scan_is@?$ctype@_W@std@@MBEPB_WFPB_W0@Z	; std::ctype<wchar_t>::do_scan_is
PUBLIC	?is@?$ctype@_W@std@@QBE_NF_W@Z			; std::ctype<wchar_t>::is
PUBLIC	?do_scan_not@?$ctype@_W@std@@MBEPB_WFPB_W0@Z	; std::ctype<wchar_t>::do_scan_not
PUBLIC	?do_tolower@?$ctype@_W@std@@MBE_W_W@Z		; std::ctype<wchar_t>::do_tolower
PUBLIC	?do_tolower@?$ctype@_W@std@@MBEPB_WPA_WPB_W@Z	; std::ctype<wchar_t>::do_tolower
PUBLIC	?do_toupper@?$ctype@_W@std@@MBE_W_W@Z		; std::ctype<wchar_t>::do_toupper
PUBLIC	?do_toupper@?$ctype@_W@std@@MBEPB_WPA_WPB_W@Z	; std::ctype<wchar_t>::do_toupper
PUBLIC	?do_widen@?$ctype@_W@std@@MBE_WD@Z		; std::ctype<wchar_t>::do_widen
PUBLIC	?_Dowiden@?$ctype@_W@std@@IBE_WD@Z		; std::ctype<wchar_t>::_Dowiden
PUBLIC	?do_widen@?$ctype@_W@std@@MBEPBDPBD0PA_W@Z	; std::ctype<wchar_t>::do_widen
PUBLIC	?do_narrow@?$ctype@_W@std@@MBED_WD@Z		; std::ctype<wchar_t>::do_narrow
PUBLIC	?_Donarrow@?$ctype@_W@std@@IBED_WD@Z		; std::ctype<wchar_t>::_Donarrow
PUBLIC	?do_narrow@?$ctype@_W@std@@MBEPB_WPB_W0DPAD@Z	; std::ctype<wchar_t>::do_narrow
PUBLIC	??1?$ctype@_W@std@@MAE@XZ			; std::ctype<wchar_t>::~ctype<wchar_t>
PUBLIC	??_G?$ctype@_W@std@@MAEPAXI@Z			; std::ctype<wchar_t>::`scalar deleting destructor'
PUBLIC	??0?$ctype@_W@std@@QAE@ABV_Locinfo@1@I@Z	; std::ctype<wchar_t>::ctype<wchar_t>
PUBLIC	?_Getcat@?$ctype@_W@std@@SAIPAPBVfacet@locale@2@PBV42@@Z ; std::ctype<wchar_t>::_Getcat
PUBLIC	??$use_facet@V?$ctype@_W@std@@@std@@YAABV?$ctype@_W@0@ABVlocale@0@@Z ; std::use_facet<std::ctype<wchar_t> >
PUBLIC	??$?6_WU?$char_traits@_W@std@@@std@@YAAAV?$basic_ostream@_WU?$char_traits@_W@std@@@0@AAV10@PBD@Z ; std::operator<<<wchar_t,std::char_traits<wchar_t> >
PUBLIC	?eq_int_type@?$char_traits@_W@std@@SA_NABG0@Z	; std::char_traits<wchar_t>::eq_int_type
PUBLIC	?eof@?$char_traits@_W@std@@SAGXZ		; std::char_traits<wchar_t>::eof
PUBLIC	?fill@?$basic_ios@_WU?$char_traits@_W@std@@@std@@QBE_WXZ ; std::basic_ios<wchar_t,std::char_traits<wchar_t> >::fill
PUBLIC	?to_int_type@?$char_traits@_W@std@@SAGAB_W@Z	; std::char_traits<wchar_t>::to_int_type
PUBLIC	?_Pninc@?$basic_streambuf@_WU?$char_traits@_W@std@@@std@@IAEPA_WXZ ; std::basic_streambuf<wchar_t,std::char_traits<wchar_t> >::_Pninc
PUBLIC	?_Pnavail@?$basic_streambuf@_WU?$char_traits@_W@std@@@std@@IBE_JXZ ; std::basic_streambuf<wchar_t,std::char_traits<wchar_t> >::_Pnavail
PUBLIC	?sputc@?$basic_streambuf@_WU?$char_traits@_W@std@@@std@@QAEG_W@Z ; std::basic_streambuf<wchar_t,std::char_traits<wchar_t> >::sputc
PUBLIC	?sputn@?$basic_streambuf@_WU?$char_traits@_W@std@@@std@@QAE_JPB_W_J@Z ; std::basic_streambuf<wchar_t,std::char_traits<wchar_t> >::sputn
PUBLIC	?tie@?$basic_ios@_WU?$char_traits@_W@std@@@std@@QBEPAV?$basic_ostream@_WU?$char_traits@_W@std@@@2@XZ ; std::basic_ios<wchar_t,std::char_traits<wchar_t> >::tie
PUBLIC	??0_Sentry_base@?$basic_ostream@_WU?$char_traits@_W@std@@@std@@QAE@AAV12@@Z ; std::basic_ostream<wchar_t,std::char_traits<wchar_t> >::_Sentry_base::_Sentry_base
PUBLIC	??0sentry@?$basic_ostream@_WU?$char_traits@_W@std@@@std@@QAE@AAV12@@Z ; std::basic_ostream<wchar_t,std::char_traits<wchar_t> >::sentry::sentry
PUBLIC	?clear@?$basic_ios@_WU?$char_traits@_W@std@@@std@@QAEXH_N@Z ; std::basic_ios<wchar_t,std::char_traits<wchar_t> >::clear
PUBLIC	?setstate@?$basic_ios@_WU?$char_traits@_W@std@@@std@@QAEXH_N@Z ; std::basic_ios<wchar_t,std::char_traits<wchar_t> >::setstate
PUBLIC	?pubsync@?$basic_streambuf@_WU?$char_traits@_W@std@@@std@@QAEHXZ ; std::basic_streambuf<wchar_t,std::char_traits<wchar_t> >::pubsync
PUBLIC	?flush@?$basic_ostream@_WU?$char_traits@_W@std@@@std@@QAEAAV12@XZ ; std::basic_ostream<wchar_t,std::char_traits<wchar_t> >::flush
PUBLIC	?_Osfx@?$basic_ostream@_WU?$char_traits@_W@std@@@std@@QAEXXZ ; std::basic_ostream<wchar_t,std::char_traits<wchar_t> >::_Osfx
PUBLIC	?rdbuf@?$basic_ios@_WU?$char_traits@_W@std@@@std@@QBEPAV?$basic_streambuf@_WU?$char_traits@_W@std@@@2@XZ ; std::basic_ios<wchar_t,std::char_traits<wchar_t> >::rdbuf
PUBLIC	??1_Sentry_base@?$basic_ostream@_WU?$char_traits@_W@std@@@std@@QAE@XZ ; std::basic_ostream<wchar_t,std::char_traits<wchar_t> >::_Sentry_base::~_Sentry_base
PUBLIC	??1sentry@?$basic_ostream@_WU?$char_traits@_W@std@@@std@@QAE@XZ ; std::basic_ostream<wchar_t,std::char_traits<wchar_t> >::sentry::~sentry
PUBLIC	??Bsentry@?$basic_ostream@_WU?$char_traits@_W@std@@@std@@QBEPQ_Bool_struct@2@HXZ ; std::basic_ostream<wchar_t,std::char_traits<wchar_t> >::sentry::operator int std::_Bool_struct::*
PUBLIC	??$?6_WU?$char_traits@_W@std@@V?$allocator@_W@1@@std@@YAAAV?$basic_ostream@_WU?$char_traits@_W@std@@@0@AAV10@ABV?$basic_string@_WU?$char_traits@_W@std@@V?$allocator@_W@2@@0@@Z ; std::operator<<<wchar_t,std::char_traits<wchar_t>,std::allocator<wchar_t> >
PUBLIC	??A?$basic_string@_WU?$char_traits@_W@std@@V?$allocator@_W@2@@std@@QBEAB_WI@Z ; std::basic_string<wchar_t,std::char_traits<wchar_t>,std::allocator<wchar_t> >::operator[]
PUBLIC	??$_Construct@H@?$basic_string@DU?$char_traits@D@std@@V?$allocator@D@2@@std@@QAEXHHU_Int_iterator_tag@1@@Z ; std::basic_string<char,std::char_traits<char>,std::allocator<char> >::_Construct<int>
PUBLIC	??$?0H@?$basic_string@DU?$char_traits@D@std@@V?$allocator@D@2@@std@@QAE@HH@Z ; std::basic_string<char,std::char_traits<char>,std::allocator<char> >::basic_string<char,std::char_traits<char>,std::allocator<char> ><int>
PUBLIC	??A?$basic_string@DU?$char_traits@D@std@@V?$allocator@D@2@@std@@QBEABDI@Z ; std::basic_string<char,std::char_traits<char>,std::allocator<char> >::operator[]
PUBLIC	_wmemmove
PUBLIC	?move@?$char_traits@_W@std@@SAPA_WPA_WPB_WI@Z	; std::char_traits<wchar_t>::move
PUBLIC	?erase@?$basic_string@_WU?$char_traits@_W@std@@V?$allocator@_W@2@@std@@QAEAAV12@II@Z ; std::basic_string<wchar_t,std::char_traits<wchar_t>,std::allocator<wchar_t> >::erase
PUBLIC	?size@?$basic_string@_WU?$char_traits@_W@std@@V?$allocator@_W@2@@std@@QBEIXZ ; std::basic_string<wchar_t,std::char_traits<wchar_t>,std::allocator<wchar_t> >::size
PUBLIC	?_Xran@?$basic_string@_WU?$char_traits@_W@std@@V?$allocator@_W@2@@std@@QBEXXZ ; std::basic_string<wchar_t,std::char_traits<wchar_t>,std::allocator<wchar_t> >::_Xran
PUBLIC	?assign@?$basic_string@_WU?$char_traits@_W@std@@V?$allocator@_W@2@@std@@QAEAAV12@ABV12@II@Z ; std::basic_string<wchar_t,std::char_traits<wchar_t>,std::allocator<wchar_t> >::assign
PUBLIC	?assign@?$basic_string@_WU?$char_traits@_W@std@@V?$allocator@_W@2@@std@@QAEAAV12@ABV12@@Z ; std::basic_string<wchar_t,std::char_traits<wchar_t>,std::allocator<wchar_t> >::assign
PUBLIC	??4?$basic_string@_WU?$char_traits@_W@std@@V?$allocator@_W@2@@std@@QAEAAV01@ABV01@@Z ; std::basic_string<wchar_t,std::char_traits<wchar_t>,std::allocator<wchar_t> >::operator=
PUBLIC	?get_allocator@?$basic_string@_WU?$char_traits@_W@std@@V?$allocator@_W@2@@std@@QBE?AV?$allocator@_W@2@XZ ; std::basic_string<wchar_t,std::char_traits<wchar_t>,std::allocator<wchar_t> >::get_allocator
PUBLIC	??$?8_W_W@std@@YA_NABV?$allocator@_W@0@0@Z	; std::operator==<wchar_t,wchar_t>
PUBLIC	??$?9_W_W@std@@YA_NABV?$allocator@_W@0@0@Z	; std::operator!=<wchar_t,wchar_t>
PUBLIC	?assign@?$basic_string@_WU?$char_traits@_W@std@@V?$allocator@_W@2@@std@@QAEAAV12@$$QAV12@@Z ; std::basic_string<wchar_t,std::char_traits<wchar_t>,std::allocator<wchar_t> >::assign
PUBLIC	??$forward@V?$allocator@_W@std@@@std@@YA$$QAV?$allocator@_W@0@AAV10@@Z ; std::forward<std::allocator<wchar_t> >
PUBLIC	??$forward@V?$basic_string@_WU?$char_traits@_W@std@@V?$allocator@_W@2@@std@@@std@@YA$$QAV?$basic_string@_WU?$char_traits@_W@std@@V?$allocator@_W@2@@0@AAV10@@Z ; std::forward<std::basic_string<wchar_t,std::char_traits<wchar_t>,std::allocator<wchar_t> > >
PUBLIC	??0?$basic_string@_WU?$char_traits@_W@std@@V?$allocator@_W@2@@std@@QAE@$$QAV01@@Z ; std::basic_string<wchar_t,std::char_traits<wchar_t>,std::allocator<wchar_t> >::basic_string<wchar_t,std::char_traits<wchar_t>,std::allocator<wchar_t> >
PUBLIC	??A?$basic_string@_WU?$char_traits@_W@std@@V?$allocator@_W@2@@std@@QAEAA_WI@Z ; std::basic_string<wchar_t,std::char_traits<wchar_t>,std::allocator<wchar_t> >::operator[]
PUBLIC	??$_Iter_cat@H@std@@YA?AU_Int_iterator_tag@0@ABH@Z ; std::_Iter_cat<int>
PUBLIC	?assign@?$basic_string@_WU?$char_traits@_W@std@@V?$allocator@_W@2@@std@@QAEAAV12@I_W@Z ; std::basic_string<wchar_t,std::char_traits<wchar_t>,std::allocator<wchar_t> >::assign
PUBLIC	??$_Construct@H@?$basic_string@_WU?$char_traits@_W@std@@V?$allocator@_W@2@@std@@QAEXHHU_Int_iterator_tag@1@@Z ; std::basic_string<wchar_t,std::char_traits<wchar_t>,std::allocator<wchar_t> >::_Construct<int>
PUBLIC	??$?0H@?$basic_string@_WU?$char_traits@_W@std@@V?$allocator@_W@2@@std@@QAE@HH@Z ; std::basic_string<wchar_t,std::char_traits<wchar_t>,std::allocator<wchar_t> >::basic_string<wchar_t,std::char_traits<wchar_t>,std::allocator<wchar_t> ><int>
PUBLIC	??0?$basic_string@DU?$char_traits@D@std@@V?$allocator@D@2@@std@@QAE@ABV01@@Z ; std::basic_string<char,std::char_traits<char>,std::allocator<char> >::basic_string<char,std::char_traits<char>,std::allocator<char> >
PUBLIC	??4?$basic_string@DU?$char_traits@D@std@@V?$allocator@D@2@@std@@QAEAAV01@$$QAV01@@Z ; std::basic_string<char,std::char_traits<char>,std::allocator<char> >::operator=
PUBLIC	??4?$basic_string@DU?$char_traits@D@std@@V?$allocator@D@2@@std@@QAEAAV01@PBD@Z ; std::basic_string<char,std::char_traits<char>,std::allocator<char> >::operator=
PUBLIC	?end@?$basic_string@DU?$char_traits@D@std@@V?$allocator@D@2@@std@@QAE?AV?$_String_iterator@DU?$char_traits@D@std@@V?$allocator@D@2@@2@XZ ; std::basic_string<char,std::char_traits<char>,std::allocator<char> >::end
PUBLIC	?eq@?$char_traits@D@std@@SA_NABD0@Z		; std::char_traits<char>::eq
PUBLIC	?rfind@?$basic_string@DU?$char_traits@D@std@@V?$allocator@D@2@@std@@QBEIPBDII@Z ; std::basic_string<char,std::char_traits<char>,std::allocator<char> >::rfind
PUBLIC	?rfind@?$basic_string@DU?$char_traits@D@std@@V?$allocator@D@2@@std@@QBEIPBDI@Z ; std::basic_string<char,std::char_traits<char>,std::allocator<char> >::rfind
PUBLIC	??0?$basic_string@DU?$char_traits@D@std@@V?$allocator@D@2@@std@@QAE@ABV01@IIABV?$allocator@D@1@@Z ; std::basic_string<char,std::char_traits<char>,std::allocator<char> >::basic_string<char,std::char_traits<char>,std::allocator<char> >
PUBLIC	?substr@?$basic_string@DU?$char_traits@D@std@@V?$allocator@D@2@@std@@QBE?AV12@II@Z ; std::basic_string<char,std::char_traits<char>,std::allocator<char> >::substr
PUBLIC	?put@?$basic_ostream@DU?$char_traits@D@std@@@std@@QAEAAV12@D@Z ; std::basic_ostream<char,std::char_traits<char> >::put
PUBLIC	?endl@std@@YAAAV?$basic_ostream@DU?$char_traits@D@std@@@1@AAV21@@Z ; std::endl
PUBLIC	??6?$basic_ostream@DU?$char_traits@D@std@@@std@@QAEAAV01@P6AAAV01@AAV01@@Z@Z ; std::basic_ostream<char,std::char_traits<char> >::operator<<
PUBLIC	?put@?$num_put@DV?$ostreambuf_iterator@DU?$char_traits@D@std@@@std@@@std@@QBE?AV?$ostreambuf_iterator@DU?$char_traits@D@std@@@2@V32@AAVios_base@2@DK@Z ; std::num_put<char,std::ostreambuf_iterator<char,std::char_traits<char> > >::put
PUBLIC	??6?$basic_ostream@DU?$char_traits@D@std@@@std@@QAEAAV01@G@Z ; std::basic_ostream<char,std::char_traits<char> >::operator<<
PUBLIC	?put@?$num_put@DV?$ostreambuf_iterator@DU?$char_traits@D@std@@@std@@@std@@QBE?AV?$ostreambuf_iterator@DU?$char_traits@D@std@@@2@V32@AAVios_base@2@DJ@Z ; std::num_put<char,std::ostreambuf_iterator<char,std::char_traits<char> > >::put
PUBLIC	??6?$basic_ostream@DU?$char_traits@D@std@@@std@@QAEAAV01@H@Z ; std::basic_ostream<char,std::char_traits<char> >::operator<<
PUBLIC	?_Init@?$num_put@DV?$ostreambuf_iterator@DU?$char_traits@D@std@@@std@@@std@@IAEXABV_Locinfo@2@@Z ; std::num_put<char,std::ostreambuf_iterator<char,std::char_traits<char> > >::_Init
PUBLIC	?_Put@?$num_put@DV?$ostreambuf_iterator@DU?$char_traits@D@std@@@std@@@std@@ABA?AV?$ostreambuf_iterator@DU?$char_traits@D@std@@@2@V32@PBDI@Z ; std::num_put<char,std::ostreambuf_iterator<char,std::char_traits<char> > >::_Put
PUBLIC	?falsename@?$numpunct@D@std@@QBE?AV?$basic_string@DU?$char_traits@D@std@@V?$allocator@D@2@@2@XZ ; std::numpunct<char>::falsename
PUBLIC	?truename@?$numpunct@D@std@@QBE?AV?$basic_string@DU?$char_traits@D@std@@V?$allocator@D@2@@2@XZ ; std::numpunct<char>::truename
PUBLIC	?do_put@?$num_put@DV?$ostreambuf_iterator@DU?$char_traits@D@std@@@std@@@std@@MBE?AV?$ostreambuf_iterator@DU?$char_traits@D@std@@@2@V32@AAVios_base@2@D_N@Z ; std::num_put<char,std::ostreambuf_iterator<char,std::char_traits<char> > >::do_put
PUBLIC	?do_put@?$num_put@DV?$ostreambuf_iterator@DU?$char_traits@D@std@@@std@@@std@@MBE?AV?$ostreambuf_iterator@DU?$char_traits@D@std@@@2@V32@AAVios_base@2@DJ@Z ; std::num_put<char,std::ostreambuf_iterator<char,std::char_traits<char> > >::do_put
PUBLIC	?do_put@?$num_put@DV?$ostreambuf_iterator@DU?$char_traits@D@std@@@std@@@std@@MBE?AV?$ostreambuf_iterator@DU?$char_traits@D@std@@@2@V32@AAVios_base@2@DK@Z ; std::num_put<char,std::ostreambuf_iterator<char,std::char_traits<char> > >::do_put
PUBLIC	?do_put@?$num_put@DV?$ostreambuf_iterator@DU?$char_traits@D@std@@@std@@@std@@MBE?AV?$ostreambuf_iterator@DU?$char_traits@D@std@@@2@V32@AAVios_base@2@D_J@Z ; std::num_put<char,std::ostreambuf_iterator<char,std::char_traits<char> > >::do_put
PUBLIC	?_Ifmt@?$num_put@DV?$ostreambuf_iterator@DU?$char_traits@D@std@@@std@@@std@@ABAPADPADPBDH@Z ; std::num_put<char,std::ostreambuf_iterator<char,std::char_traits<char> > >::_Ifmt
PUBLIC	?do_put@?$num_put@DV?$ostreambuf_iterator@DU?$char_traits@D@std@@@std@@@std@@MBE?AV?$ostreambuf_iterator@DU?$char_traits@D@std@@@2@V32@AAVios_base@2@D_K@Z ; std::num_put<char,std::ostreambuf_iterator<char,std::char_traits<char> > >::do_put
PUBLIC	?do_put@?$num_put@DV?$ostreambuf_iterator@DU?$char_traits@D@std@@@std@@@std@@MBE?AV?$ostreambuf_iterator@DU?$char_traits@D@std@@@2@V32@AAVios_base@2@DN@Z ; std::num_put<char,std::ostreambuf_iterator<char,std::char_traits<char> > >::do_put
PUBLIC	?precision@ios_base@std@@QBE_JXZ		; std::ios_base::precision
PUBLIC	?_Ffmt@?$num_put@DV?$ostreambuf_iterator@DU?$char_traits@D@std@@@std@@@std@@ABAPADPADDH@Z ; std::num_put<char,std::ostreambuf_iterator<char,std::char_traits<char> > >::_Ffmt
PUBLIC	?insert@?$basic_string@DU?$char_traits@D@std@@V?$allocator@D@2@@std@@QAEAAV12@IID@Z ; std::basic_string<char,std::char_traits<char>,std::allocator<char> >::insert
PUBLIC	??A?$basic_string@DU?$char_traits@D@std@@V?$allocator@D@2@@std@@QAEAADI@Z ; std::basic_string<char,std::char_traits<char>,std::allocator<char> >::operator[]
PUBLIC	?decimal_point@?$numpunct@D@std@@QBEDXZ		; std::numpunct<char>::decimal_point
PUBLIC	?_Fput@?$num_put@DV?$ostreambuf_iterator@DU?$char_traits@D@std@@@std@@@std@@ABA?AV?$ostreambuf_iterator@DU?$char_traits@D@std@@@2@V32@AAVios_base@2@DPBDIIII@Z ; std::num_put<char,std::ostreambuf_iterator<char,std::char_traits<char> > >::_Fput
PUBLIC	?do_put@?$num_put@DV?$ostreambuf_iterator@DU?$char_traits@D@std@@@std@@@std@@MBE?AV?$ostreambuf_iterator@DU?$char_traits@D@std@@@2@V32@AAVios_base@2@DO@Z ; std::num_put<char,std::ostreambuf_iterator<char,std::char_traits<char> > >::do_put
PUBLIC	?_Putc@?$num_put@DV?$ostreambuf_iterator@DU?$char_traits@D@std@@@std@@@std@@ABA?AV?$ostreambuf_iterator@DU?$char_traits@D@std@@@2@V32@PBDI@Z ; std::num_put<char,std::ostreambuf_iterator<char,std::char_traits<char> > >::_Putc
PUBLIC	?_Putgrouped@?$num_put@DV?$ostreambuf_iterator@DU?$char_traits@D@std@@@std@@@std@@ABA?AV?$ostreambuf_iterator@DU?$char_traits@D@std@@@2@V32@PBDID@Z ; std::num_put<char,std::ostreambuf_iterator<char,std::char_traits<char> > >::_Putgrouped
PUBLIC	??4?$ostreambuf_iterator@DU?$char_traits@D@std@@@std@@QAEAAV01@D@Z ; std::ostreambuf_iterator<char,std::char_traits<char> >::operator=
PUBLIC	??D?$ostreambuf_iterator@DU?$char_traits@D@std@@@std@@QAEAAV01@XZ ; std::ostreambuf_iterator<char,std::char_traits<char> >::operator*
PUBLIC	??E?$ostreambuf_iterator@DU?$char_traits@D@std@@@std@@QAEAAV01@XZ ; std::ostreambuf_iterator<char,std::char_traits<char> >::operator++
PUBLIC	?_Rep@?$num_put@DV?$ostreambuf_iterator@DU?$char_traits@D@std@@@std@@@std@@ABA?AV?$ostreambuf_iterator@DU?$char_traits@D@std@@@2@V32@DI@Z ; std::num_put<char,std::ostreambuf_iterator<char,std::char_traits<char> > >::_Rep
PUBLIC	?_Getcvt@_Locinfo@std@@QBE?AU_Cvtvec@@XZ	; std::_Locinfo::_Getcvt
PUBLIC	?_Getlconv@_Locinfo@std@@QBEPBUlconv@@XZ	; std::_Locinfo::_Getlconv
PUBLIC	?_Getfalse@_Locinfo@std@@QBEPBDXZ		; std::_Locinfo::_Getfalse
PUBLIC	?_Gettrue@_Locinfo@std@@QBEPBDXZ		; std::_Locinfo::_Gettrue
PUBLIC	??$_Maklocchr@D@std@@YADDPADABU_Cvtvec@@@Z	; std::_Maklocchr<char>
PUBLIC	??$_Maklocstr@D@std@@YAPADPBDPADABU_Cvtvec@@@Z	; std::_Maklocstr<char>
PUBLIC	?_Init@?$numpunct@D@std@@IAEXABV_Locinfo@2@_N@Z	; std::numpunct<char>::_Init
PUBLIC	?do_decimal_point@?$numpunct@D@std@@MBEDXZ	; std::numpunct<char>::do_decimal_point
PUBLIC	?do_thousands_sep@?$numpunct@D@std@@MBEDXZ	; std::numpunct<char>::do_thousands_sep
PUBLIC	?do_grouping@?$numpunct@D@std@@MBE?AV?$basic_string@DU?$char_traits@D@std@@V?$allocator@D@2@@2@XZ ; std::numpunct<char>::do_grouping
PUBLIC	?do_falsename@?$numpunct@D@std@@MBE?AV?$basic_string@DU?$char_traits@D@std@@V?$allocator@D@2@@2@XZ ; std::numpunct<char>::do_falsename
PUBLIC	?assign@?$basic_string@DU?$char_traits@D@std@@V?$allocator@D@2@@std@@QAEAAV12@PBDI@Z ; std::basic_string<char,std::char_traits<char>,std::allocator<char> >::assign
PUBLIC	?assign@?$basic_string@DU?$char_traits@D@std@@V?$allocator@D@2@@std@@QAEAAV12@PBD@Z ; std::basic_string<char,std::char_traits<char>,std::allocator<char> >::assign
PUBLIC	??0?$basic_string@DU?$char_traits@D@std@@V?$allocator@D@2@@std@@QAE@PBD@Z ; std::basic_string<char,std::char_traits<char>,std::allocator<char> >::basic_string<char,std::char_traits<char>,std::allocator<char> >
PUBLIC	?do_truename@?$numpunct@D@std@@MBE?AV?$basic_string@DU?$char_traits@D@std@@V?$allocator@D@2@@2@XZ ; std::numpunct<char>::do_truename
PUBLIC	?_Tidy@?$numpunct@D@std@@AAEXXZ			; std::numpunct<char>::_Tidy
PUBLIC	??1?$numpunct@D@std@@MAE@XZ			; std::numpunct<char>::~numpunct<char>
PUBLIC	??_G?$numpunct@D@std@@MAEPAXI@Z			; std::numpunct<char>::`scalar deleting destructor'
PUBLIC	??0?$numpunct@D@std@@QAE@ABV_Locinfo@1@I_N@Z	; std::numpunct<char>::numpunct<char>
PUBLIC	?_Getcat@?$numpunct@D@std@@SAIPAPBVfacet@locale@2@PBV42@@Z ; std::numpunct<char>::_Getcat
PUBLIC	??$use_facet@V?$numpunct@D@std@@@std@@YAABV?$numpunct@D@0@ABVlocale@0@@Z ; std::use_facet<std::numpunct<char> >
PUBLIC	?thousands_sep@?$numpunct@D@std@@QBEDXZ		; std::numpunct<char>::thousands_sep
PUBLIC	?grouping@?$numpunct@D@std@@QBE?AV?$basic_string@DU?$char_traits@D@std@@V?$allocator@D@2@@2@XZ ; std::numpunct<char>::grouping
PUBLIC	?_Iput@?$num_put@DV?$ostreambuf_iterator@DU?$char_traits@D@std@@@std@@@std@@ABA?AV?$ostreambuf_iterator@DU?$char_traits@D@std@@@2@V32@AAVios_base@2@DPADI@Z ; std::num_put<char,std::ostreambuf_iterator<char,std::char_traits<char> > >::_Iput
PUBLIC	?do_put@?$num_put@DV?$ostreambuf_iterator@DU?$char_traits@D@std@@@std@@@std@@MBE?AV?$ostreambuf_iterator@DU?$char_traits@D@std@@@2@V32@AAVios_base@2@DPBX@Z ; std::num_put<char,std::ostreambuf_iterator<char,std::char_traits<char> > >::do_put
PUBLIC	??1?$num_put@DV?$ostreambuf_iterator@DU?$char_traits@D@std@@@std@@@std@@MAE@XZ ; std::num_put<char,std::ostreambuf_iterator<char,std::char_traits<char> > >::~num_put<char,std::ostreambuf_iterator<char,std::char_traits<char> > >
PUBLIC	??_G?$num_put@DV?$ostreambuf_iterator@DU?$char_traits@D@std@@@std@@@std@@MAEPAXI@Z ; std::num_put<char,std::ostreambuf_iterator<char,std::char_traits<char> > >::`scalar deleting destructor'
PUBLIC	??0?$num_put@DV?$ostreambuf_iterator@DU?$char_traits@D@std@@@std@@@std@@QAE@ABV_Locinfo@1@I@Z ; std::num_put<char,std::ostreambuf_iterator<char,std::char_traits<char> > >::num_put<char,std::ostreambuf_iterator<char,std::char_traits<char> > >
PUBLIC	?_Getcat@?$num_put@DV?$ostreambuf_iterator@DU?$char_traits@D@std@@@std@@@std@@SAIPAPBVfacet@locale@2@PBV42@@Z ; std::num_put<char,std::ostreambuf_iterator<char,std::char_traits<char> > >::_Getcat
PUBLIC	??$use_facet@V?$num_put@DV?$ostreambuf_iterator@DU?$char_traits@D@std@@@std@@@std@@@std@@YAABV?$num_put@DV?$ostreambuf_iterator@DU?$char_traits@D@std@@@std@@@0@ABVlocale@0@@Z ; std::use_facet<std::num_put<char,std::ostreambuf_iterator<char,std::char_traits<char> > > >
PUBLIC	?put@?$num_put@DV?$ostreambuf_iterator@DU?$char_traits@D@std@@@std@@@std@@QBE?AV?$ostreambuf_iterator@DU?$char_traits@D@std@@@2@V32@AAVios_base@2@D_K@Z ; std::num_put<char,std::ostreambuf_iterator<char,std::char_traits<char> > >::put
PUBLIC	??0?$ostreambuf_iterator@DU?$char_traits@D@std@@@std@@QAE@PAV?$basic_streambuf@DU?$char_traits@D@std@@@1@@Z ; std::ostreambuf_iterator<char,std::char_traits<char> >::ostreambuf_iterator<char,std::char_traits<char> >
PUBLIC	?failed@?$ostreambuf_iterator@DU?$char_traits@D@std@@@std@@QBE_NXZ ; std::ostreambuf_iterator<char,std::char_traits<char> >::failed
PUBLIC	??6?$basic_ostream@DU?$char_traits@D@std@@@std@@QAEAAV01@_K@Z ; std::basic_ostream<char,std::char_traits<char> >::operator<<
PUBLIC	??1?$basic_string@_WU?$char_traits@_W@std@@V?$allocator@_W@2@@std@@QAE@XZ ; std::basic_string<wchar_t,std::char_traits<wchar_t>,std::allocator<wchar_t> >::~basic_string<wchar_t,std::char_traits<wchar_t>,std::allocator<wchar_t> >
PUBLIC	?_Myptr@?$basic_string@_WU?$char_traits@_W@std@@V?$allocator@_W@2@@std@@QBEPB_WXZ ; std::basic_string<wchar_t,std::char_traits<wchar_t>,std::allocator<wchar_t> >::_Myptr
PUBLIC	?c_str@?$basic_string@_WU?$char_traits@_W@std@@V?$allocator@_W@2@@std@@QBEPB_WXZ ; std::basic_string<wchar_t,std::char_traits<wchar_t>,std::allocator<wchar_t> >::c_str
PUBLIC	??0MD5@@QAE@XZ					; MD5::MD5
PUBLIC	?Init@MD5@@QAEXXZ				; MD5::Init
PUBLIC	?Encode@MD5@@CAXPAEPAKI@Z			; MD5::Encode
PUBLIC	?Decode@MD5@@CAXPAKPAEI@Z			; MD5::Decode
PUBLIC	?MD5Transform@MD5@@CAXQAKQAE@Z			; MD5::MD5Transform
PUBLIC	?Update@MD5@@QAEXPAEI@Z				; MD5::Update
PUBLIC	?writeToString@MD5@@QAEXXZ			; MD5::writeToString
PUBLIC	?Final@MD5@@QAEXXZ				; MD5::Final
PUBLIC	?digestFile@MD5@@QAEPADPAD@Z			; MD5::digestFile
PUBLIC	??$?6U?$char_traits@D@std@@@std@@YAAAV?$basic_ostream@DU?$char_traits@D@std@@@0@AAV10@PBD@Z ; std::operator<<<std::char_traits<char> >
PUBLIC	?c_str@?$basic_string@DU?$char_traits@D@std@@V?$allocator@D@2@@std@@QBEPBDXZ ; std::basic_string<char,std::char_traits<char>,std::allocator<char> >::c_str
PUBLIC	?width@ios_base@std@@QBE_JXZ			; std::ios_base::width
PUBLIC	?width@ios_base@std@@QAE_J_J@Z			; std::ios_base::width
PUBLIC	?fill@?$basic_ios@DU?$char_traits@D@std@@@std@@QBEDXZ ; std::basic_ios<char,std::char_traits<char> >::fill
PUBLIC	?sputc@?$basic_streambuf@DU?$char_traits@D@std@@@std@@QAEHD@Z ; std::basic_streambuf<char,std::char_traits<char> >::sputc
PUBLIC	?sputn@?$basic_streambuf@DU?$char_traits@D@std@@@std@@QAE_JPBD_J@Z ; std::basic_streambuf<char,std::char_traits<char> >::sputn
PUBLIC	?good@ios_base@std@@QBE_NXZ			; std::ios_base::good
PUBLIC	?tie@?$basic_ios@DU?$char_traits@D@std@@@std@@QBEPAV?$basic_ostream@DU?$char_traits@D@std@@@2@XZ ; std::basic_ios<char,std::char_traits<char> >::tie
PUBLIC	??0_Sentry_base@?$basic_ostream@DU?$char_traits@D@std@@@std@@QAE@AAV12@@Z ; std::basic_ostream<char,std::char_traits<char> >::_Sentry_base::_Sentry_base
PUBLIC	??0sentry@?$basic_ostream@DU?$char_traits@D@std@@@std@@QAE@AAV12@@Z ; std::basic_ostream<char,std::char_traits<char> >::sentry::sentry
PUBLIC	?flags@ios_base@std@@QBEHXZ			; std::ios_base::flags
PUBLIC	?fail@ios_base@std@@QBE_NXZ			; std::ios_base::fail
PUBLIC	?pubsync@?$basic_streambuf@DU?$char_traits@D@std@@@std@@QAEHXZ ; std::basic_streambuf<char,std::char_traits<char> >::pubsync
PUBLIC	?flush@?$basic_ostream@DU?$char_traits@D@std@@@std@@QAEAAV12@XZ ; std::basic_ostream<char,std::char_traits<char> >::flush
PUBLIC	?_Osfx@?$basic_ostream@DU?$char_traits@D@std@@@std@@QAEXXZ ; std::basic_ostream<char,std::char_traits<char> >::_Osfx
PUBLIC	?rdbuf@?$basic_ios@DU?$char_traits@D@std@@@std@@QBEPAV?$basic_streambuf@DU?$char_traits@D@std@@@2@XZ ; std::basic_ios<char,std::char_traits<char> >::rdbuf
PUBLIC	??1_Sentry_base@?$basic_ostream@DU?$char_traits@D@std@@@std@@QAE@XZ ; std::basic_ostream<char,std::char_traits<char> >::_Sentry_base::~_Sentry_base
PUBLIC	??1sentry@?$basic_ostream@DU?$char_traits@D@std@@@std@@QAE@XZ ; std::basic_ostream<char,std::char_traits<char> >::sentry::~sentry
PUBLIC	??Bsentry@?$basic_ostream@DU?$char_traits@D@std@@@std@@QBEPQ_Bool_struct@2@HXZ ; std::basic_ostream<char,std::char_traits<char> >::sentry::operator int std::_Bool_struct::*
PUBLIC	??$?6DU?$char_traits@D@std@@V?$allocator@D@1@@std@@YAAAV?$basic_ostream@DU?$char_traits@D@std@@@0@AAV10@ABV?$basic_string@DU?$char_traits@D@std@@V?$allocator@D@2@@0@@Z ; std::operator<<<char,std::char_traits<char>,std::allocator<char> >
PUBLIC	??$move@AAV?$basic_string@DU?$char_traits@D@std@@V?$allocator@D@2@@std@@@std@@YA$$QAV?$basic_string@DU?$char_traits@D@std@@V?$allocator@D@2@@0@AAV10@@Z ; std::move<std::basic_string<char,std::char_traits<char>,std::allocator<char> > &>
PUBLIC	??$?HDU?$char_traits@D@std@@V?$allocator@D@1@@std@@YA?AV?$basic_string@DU?$char_traits@D@std@@V?$allocator@D@2@@0@$$QAV10@PBD@Z ; std::operator+<char,std::char_traits<char>,std::allocator<char> >
PUBLIC	?assign@?$basic_string@DU?$char_traits@D@std@@V?$allocator@D@2@@std@@QAEAAV12@ABV12@II@Z ; std::basic_string<char,std::char_traits<char>,std::allocator<char> >::assign
PUBLIC	?assign@?$basic_string@DU?$char_traits@D@std@@V?$allocator@D@2@@std@@QAEAAV12@ABV12@@Z ; std::basic_string<char,std::char_traits<char>,std::allocator<char> >::assign
PUBLIC	??4?$basic_string@DU?$char_traits@D@std@@V?$allocator@D@2@@std@@QAEAAV01@ABV01@@Z ; std::basic_string<char,std::char_traits<char>,std::allocator<char> >::operator=
PUBLIC	?get_allocator@?$basic_string@DU?$char_traits@D@std@@V?$allocator@D@2@@std@@QBE?AV?$allocator@D@2@XZ ; std::basic_string<char,std::char_traits<char>,std::allocator<char> >::get_allocator
PUBLIC	??$?8DD@std@@YA_NABV?$allocator@D@0@0@Z		; std::operator==<char,char>
PUBLIC	??$?9DD@std@@YA_NABV?$allocator@D@0@0@Z		; std::operator!=<char,char>
PUBLIC	?assign@?$basic_string@DU?$char_traits@D@std@@V?$allocator@D@2@@std@@QAEAAV12@$$QAV12@@Z ; std::basic_string<char,std::char_traits<char>,std::allocator<char> >::assign
PUBLIC	??$forward@V?$allocator@D@std@@@std@@YA$$QAV?$allocator@D@0@AAV10@@Z ; std::forward<std::allocator<char> >
PUBLIC	??$forward@V?$basic_string@DU?$char_traits@D@std@@V?$allocator@D@2@@std@@@std@@YA$$QAV?$basic_string@DU?$char_traits@D@std@@V?$allocator@D@2@@0@AAV10@@Z ; std::forward<std::basic_string<char,std::char_traits<char>,std::allocator<char> > >
PUBLIC	??0?$basic_string@DU?$char_traits@D@std@@V?$allocator@D@2@@std@@QAE@$$QAV01@@Z ; std::basic_string<char,std::char_traits<char>,std::allocator<char> >::basic_string<char,std::char_traits<char>,std::allocator<char> >
PUBLIC	?append@?$basic_string@DU?$char_traits@D@std@@V?$allocator@D@2@@std@@QAEAAV12@ABV12@@Z ; std::basic_string<char,std::char_traits<char>,std::allocator<char> >::append
PUBLIC	??Y?$basic_string@DU?$char_traits@D@std@@V?$allocator@D@2@@std@@QAEAAV01@ABV01@@Z ; std::basic_string<char,std::char_traits<char>,std::allocator<char> >::operator+=
PUBLIC	?append@?$basic_string@DU?$char_traits@D@std@@V?$allocator@D@2@@std@@QAEAAV12@ABV12@II@Z ; std::basic_string<char,std::char_traits<char>,std::allocator<char> >::append
PUBLIC	?_Inside@?$basic_string@DU?$char_traits@D@std@@V?$allocator@D@2@@std@@QAE_NPBD@Z ; std::basic_string<char,std::char_traits<char>,std::allocator<char> >::_Inside
PUBLIC	?append@?$basic_string@DU?$char_traits@D@std@@V?$allocator@D@2@@std@@QAEAAV12@PBDI@Z ; std::basic_string<char,std::char_traits<char>,std::allocator<char> >::append
PUBLIC	?append@?$basic_string@DU?$char_traits@D@std@@V?$allocator@D@2@@std@@QAEAAV12@PBD@Z ; std::basic_string<char,std::char_traits<char>,std::allocator<char> >::append
PUBLIC	??Y?$basic_string@DU?$char_traits@D@std@@V?$allocator@D@2@@std@@QAEAAV01@PBD@Z ; std::basic_string<char,std::char_traits<char>,std::allocator<char> >::operator+=
PUBLIC	?reserve@?$basic_string@DU?$char_traits@D@std@@V?$allocator@D@2@@std@@QAEXI@Z ; std::basic_string<char,std::char_traits<char>,std::allocator<char> >::reserve
PUBLIC	??$?HDU?$char_traits@D@std@@V?$allocator@D@1@@std@@YA?AV?$basic_string@DU?$char_traits@D@std@@V?$allocator@D@2@@0@ABV10@PBD@Z ; std::operator+<char,std::char_traits<char>,std::allocator<char> >
PUBLIC	?length@?$char_traits@D@std@@SAIPBD@Z		; std::char_traits<char>::length
PUBLIC	?compare@?$char_traits@D@std@@SAHPBD0I@Z	; std::char_traits<char>::compare
PUBLIC	?_Myptr@?$basic_string@DU?$char_traits@D@std@@V?$allocator@D@2@@std@@QBEPBDXZ ; std::basic_string<char,std::char_traits<char>,std::allocator<char> >::_Myptr
PUBLIC	?compare@?$basic_string@DU?$char_traits@D@std@@V?$allocator@D@2@@std@@QBEHIIPBDI@Z ; std::basic_string<char,std::char_traits<char>,std::allocator<char> >::compare
PUBLIC	?compare@?$basic_string@DU?$char_traits@D@std@@V?$allocator@D@2@@std@@QBEHPBD@Z ; std::basic_string<char,std::char_traits<char>,std::allocator<char> >::compare
PUBLIC	??$?8DU?$char_traits@D@std@@V?$allocator@D@1@@std@@YA_NABV?$basic_string@DU?$char_traits@D@std@@V?$allocator@D@2@@0@PBD@Z ; std::operator==<char,std::char_traits<char>,std::allocator<char> >
PUBLIC	??0?$allocator@_W@std@@QAE@XZ			; std::allocator<wchar_t>::allocator<wchar_t>
PUBLIC	??0?$allocator@_W@std@@QAE@ABV01@@Z		; std::allocator<wchar_t>::allocator<wchar_t>
PUBLIC	??0?$_String_val@_WV?$allocator@_W@std@@@std@@QAE@V?$allocator@_W@1@@Z ; std::_String_val<wchar_t,std::allocator<wchar_t> >::_String_val<wchar_t,std::allocator<wchar_t> >
PUBLIC	??1?$_String_val@_WV?$allocator@_W@std@@@std@@QAE@XZ ; std::_String_val<wchar_t,std::allocator<wchar_t> >::~_String_val<wchar_t,std::allocator<wchar_t> >
PUBLIC	_wmemset
PUBLIC	?assign@?$char_traits@_W@std@@SAPA_WPA_WI_W@Z	; std::char_traits<wchar_t>::assign
PUBLIC	?_Chassign@?$basic_string@_WU?$char_traits@_W@std@@V?$allocator@_W@2@@std@@QAEXII_W@Z ; std::basic_string<wchar_t,std::char_traits<wchar_t>,std::allocator<wchar_t> >::_Chassign
PUBLIC	?append@?$basic_string@_WU?$char_traits@_W@std@@V?$allocator@_W@2@@std@@QAEAAV12@I_W@Z ; std::basic_string<wchar_t,std::char_traits<wchar_t>,std::allocator<wchar_t> >::append
PUBLIC	??$_Allocate@_W@std@@YAPA_WIPA_W@Z		; std::_Allocate<wchar_t>
PUBLIC	?allocate@?$allocator@_W@std@@QAEPA_WI@Z	; std::allocator<wchar_t>::allocate
PUBLIC	?max_size@?$allocator@_W@std@@QBEIXZ		; std::allocator<wchar_t>::max_size
PUBLIC	?max_size@?$basic_string@_WU?$char_traits@_W@std@@V?$allocator@_W@2@@std@@QBEIXZ ; std::basic_string<wchar_t,std::char_traits<wchar_t>,std::allocator<wchar_t> >::max_size
PUBLIC	?_Copy@?$basic_string@_WU?$char_traits@_W@std@@V?$allocator@_W@2@@std@@QAEXII@Z ; std::basic_string<wchar_t,std::char_traits<wchar_t>,std::allocator<wchar_t> >::_Copy
PUBLIC	?_Xlen@?$basic_string@_WU?$char_traits@_W@std@@V?$allocator@_W@2@@std@@QBEXXZ ; std::basic_string<wchar_t,std::char_traits<wchar_t>,std::allocator<wchar_t> >::_Xlen
PUBLIC	?_Grow@?$basic_string@_WU?$char_traits@_W@std@@V?$allocator@_W@2@@std@@QAE_NI_N@Z ; std::basic_string<wchar_t,std::char_traits<wchar_t>,std::allocator<wchar_t> >::_Grow
PUBLIC	?reserve@?$basic_string@_WU?$char_traits@_W@std@@V?$allocator@_W@2@@std@@QAEXI@Z ; std::basic_string<wchar_t,std::char_traits<wchar_t>,std::allocator<wchar_t> >::reserve
PUBLIC	_wmemcpy
PUBLIC	?copy@?$char_traits@_W@std@@SAPA_WPA_WPB_WI@Z	; std::char_traits<wchar_t>::copy
PUBLIC	?deallocate@?$allocator@_W@std@@QAEXPA_WI@Z	; std::allocator<wchar_t>::deallocate
PUBLIC	?assign@?$char_traits@_W@std@@SAXAA_WAB_W@Z	; std::char_traits<wchar_t>::assign
PUBLIC	?_Myptr@?$basic_string@_WU?$char_traits@_W@std@@V?$allocator@_W@2@@std@@QAEPA_WXZ ; std::basic_string<wchar_t,std::char_traits<wchar_t>,std::allocator<wchar_t> >::_Myptr
PUBLIC	?_Eos@?$basic_string@_WU?$char_traits@_W@std@@V?$allocator@_W@2@@std@@QAEXI@Z ; std::basic_string<wchar_t,std::char_traits<wchar_t>,std::allocator<wchar_t> >::_Eos
PUBLIC	?_Tidy@?$basic_string@_WU?$char_traits@_W@std@@V?$allocator@_W@2@@std@@QAEX_NI@Z ; std::basic_string<wchar_t,std::char_traits<wchar_t>,std::allocator<wchar_t> >::_Tidy
PUBLIC	??8?$_String_const_iterator@DU?$char_traits@D@std@@V?$allocator@D@2@@std@@QBE_NABV01@@Z ; std::_String_const_iterator<char,std::char_traits<char>,std::allocator<char> >::operator==
PUBLIC	??9?$_String_const_iterator@DU?$char_traits@D@std@@V?$allocator@D@2@@std@@QBE_NABV01@@Z ; std::_String_const_iterator<char,std::char_traits<char>,std::allocator<char> >::operator!=
PUBLIC	??E?$_String_const_iterator@DU?$char_traits@D@std@@V?$allocator@D@2@@std@@QAEAAV01@XZ ; std::_String_const_iterator<char,std::char_traits<char>,std::allocator<char> >::operator++
PUBLIC	??E?$_String_iterator@DU?$char_traits@D@std@@V?$allocator@D@2@@std@@QAEAAV01@XZ ; std::_String_iterator<char,std::char_traits<char>,std::allocator<char> >::operator++
PUBLIC	??$_Iter_cat@V?$_String_iterator@DU?$char_traits@D@std@@V?$allocator@D@2@@std@@@std@@YA?AUrandom_access_iterator_tag@0@ABV?$_String_iterator@DU?$char_traits@D@std@@V?$allocator@D@2@@0@@Z ; std::_Iter_cat<std::_String_iterator<char,std::char_traits<char>,std::allocator<char> > >
PUBLIC	?_Compat@?$_String_const_iterator@DU?$char_traits@D@std@@V?$allocator@D@2@@std@@QBEXABV12@@Z ; std::_String_const_iterator<char,std::char_traits<char>,std::allocator<char> >::_Compat
PUBLIC	??G?$_String_const_iterator@DU?$char_traits@D@std@@V?$allocator@D@2@@std@@QBEHABV01@@Z ; std::_String_const_iterator<char,std::char_traits<char>,std::allocator<char> >::operator-
PUBLIC	??G?$_String_iterator@DU?$char_traits@D@std@@V?$allocator@D@2@@std@@QBEHABV?$_String_const_iterator@DU?$char_traits@D@std@@V?$allocator@D@2@@1@@Z ; std::_String_iterator<char,std::char_traits<char>,std::allocator<char> >::operator-
PUBLIC	??$_Distance2@V?$_String_iterator@DU?$char_traits@D@std@@V?$allocator@D@2@@std@@I@std@@YAXV?$_String_iterator@DU?$char_traits@D@std@@V?$allocator@D@2@@0@0AAIUrandom_access_iterator_tag@0@@Z ; std::_Distance2<std::_String_iterator<char,std::char_traits<char>,std::allocator<char> >,unsigned int>
PUBLIC	??$_Distance@V?$_String_iterator@DU?$char_traits@D@std@@V?$allocator@D@2@@std@@I@std@@YAXV?$_String_iterator@DU?$char_traits@D@std@@V?$allocator@D@2@@0@0AAI@Z ; std::_Distance<std::_String_iterator<char,std::char_traits<char>,std::allocator<char> >,unsigned int>
PUBLIC	??$_Construct@V?$_String_iterator@DU?$char_traits@D@std@@V?$allocator@D@2@@std@@@?$basic_string@_WU?$char_traits@_W@std@@V?$allocator@_W@2@@std@@QAEXV?$_String_iterator@DU?$char_traits@D@std@@V?$allocator@D@2@@1@0Uforward_iterator_tag@1@@Z ; std::basic_string<wchar_t,std::char_traits<wchar_t>,std::allocator<wchar_t> >::_Construct<std::_String_iterator<char,std::char_traits<char>,std::allocator<char> > >
PUBLIC	??$?0V?$_String_iterator@DU?$char_traits@D@std@@V?$allocator@D@2@@std@@@?$basic_string@_WU?$char_traits@_W@std@@V?$allocator@_W@2@@std@@QAE@V?$_String_iterator@DU?$char_traits@D@std@@V?$allocator@D@2@@1@0@Z ; std::basic_string<wchar_t,std::char_traits<wchar_t>,std::allocator<wchar_t> >::basic_string<wchar_t,std::char_traits<wchar_t>,std::allocator<wchar_t> ><std::_String_iterator<char,std::char_traits<char>,std::allocator<char> > >
PUBLIC	?clear@ios_base@std@@QAEXH@Z			; std::ios_base::clear
PUBLIC	?_Init@ios_base@std@@IAEXXZ			; std::ios_base::_Init
PUBLIC	?rdstate@ios_base@std@@QBEHXZ			; std::ios_base::rdstate
PUBLIC	??0error_code@std@@QAE@HABVerror_category@1@@Z	; std::error_code::error_code
PUBLIC	?make_error_code@std@@YA?AVerror_code@1@W4io_errc@31@@Z ; std::make_error_code
PUBLIC	?_Makestr@system_error@std@@AAEXXZ		; std::system_error::_Makestr
PUBLIC	??0system_error@std@@QAE@Verror_code@1@PBD@Z	; std::system_error::system_error
PUBLIC	??0failure@ios_base@std@@QAE@PBDABVerror_code@2@@Z ; std::ios_base::failure::failure
PUBLIC	??1failure@ios_base@std@@UAE@XZ			; std::ios_base::failure::~failure
PUBLIC	??_Gfailure@ios_base@std@@UAEPAXI@Z		; std::ios_base::failure::`scalar deleting destructor'
PUBLIC	??0failure@ios_base@std@@QAE@ABV012@@Z		; std::ios_base::failure::failure
PUBLIC	??1system_error@std@@UAE@XZ			; std::system_error::~system_error
PUBLIC	??_Gsystem_error@std@@UAEPAXI@Z			; std::system_error::`scalar deleting destructor'
PUBLIC	??0system_error@std@@QAE@ABV01@@Z		; std::system_error::system_error
PUBLIC	?clear@ios_base@std@@QAEXH_N@Z			; std::ios_base::clear
PUBLIC	?clear@?$basic_ios@DU?$char_traits@D@std@@@std@@QAEXH_N@Z ; std::basic_ios<char,std::char_traits<char> >::clear
PUBLIC	?setstate@?$basic_ios@DU?$char_traits@D@std@@@std@@QAEXH_N@Z ; std::basic_ios<char,std::char_traits<char> >::setstate
PUBLIC	?widen@?$ctype@D@std@@QBEDD@Z			; std::ctype<char>::widen
PUBLIC	??0ctype_base@std@@QAE@I@Z			; std::ctype_base::ctype_base
PUBLIC	?_Getctype@_Locinfo@std@@QBE?AU_Ctypevec@@XZ	; std::_Locinfo::_Getctype
PUBLIC	?_Init@?$ctype@D@std@@IAEXABV_Locinfo@2@@Z	; std::ctype<char>::_Init
PUBLIC	?do_tolower@?$ctype@D@std@@MBEDD@Z		; std::ctype<char>::do_tolower
PUBLIC	?do_tolower@?$ctype@D@std@@MBEPBDPADPBD@Z	; std::ctype<char>::do_tolower
PUBLIC	?do_toupper@?$ctype@D@std@@MBEDD@Z		; std::ctype<char>::do_toupper
PUBLIC	?do_toupper@?$ctype@D@std@@MBEPBDPADPBD@Z	; std::ctype<char>::do_toupper
PUBLIC	?do_widen@?$ctype@D@std@@MBEDD@Z		; std::ctype<char>::do_widen
PUBLIC	?do_widen@?$ctype@D@std@@MBEPBDPBD0PAD@Z	; std::ctype<char>::do_widen
PUBLIC	?do_narrow@?$ctype@D@std@@MBEDDD@Z		; std::ctype<char>::do_narrow
PUBLIC	?do_narrow@?$ctype@D@std@@MBEPBDPBD0DPAD@Z	; std::ctype<char>::do_narrow
PUBLIC	??_Gctype_base@std@@UAEPAXI@Z			; std::ctype_base::`scalar deleting destructor'
PUBLIC	??1ctype_base@std@@UAE@XZ			; std::ctype_base::~ctype_base
PUBLIC	?_Tidy@?$ctype@D@std@@IAEXXZ			; std::ctype<char>::_Tidy
PUBLIC	??1?$ctype@D@std@@MAE@XZ			; std::ctype<char>::~ctype<char>
PUBLIC	??_G?$ctype@D@std@@MAEPAXI@Z			; std::ctype<char>::`scalar deleting destructor'
PUBLIC	??0?$ctype@D@std@@QAE@ABV_Locinfo@1@I@Z		; std::ctype<char>::ctype<char>
PUBLIC	?_Getcat@?$ctype@D@std@@SAIPAPBVfacet@locale@2@PBV42@@Z ; std::ctype<char>::_Getcat
PUBLIC	??$use_facet@V?$ctype@D@std@@@std@@YAABV?$ctype@D@0@ABVlocale@0@@Z ; std::use_facet<std::ctype<char> >
PUBLIC	??0locale@std@@QAE@ABV01@@Z			; std::locale::locale
PUBLIC	?getloc@ios_base@std@@QBE?AVlocale@2@XZ		; std::ios_base::getloc
PUBLIC	?widen@?$basic_ios@DU?$char_traits@D@std@@@std@@QBEDD@Z ; std::basic_ios<char,std::char_traits<char> >::widen
PUBLIC	?init@?$basic_ios@DU?$char_traits@D@std@@@std@@IAEXPAV?$basic_streambuf@DU?$char_traits@D@std@@@2@_N@Z ; std::basic_ios<char,std::char_traits<char> >::init
PUBLIC	??0ios_base@std@@IAE@XZ				; std::ios_base::ios_base
PUBLIC	??0?$basic_ios@DU?$char_traits@D@std@@@std@@IAE@XZ ; std::basic_ios<char,std::char_traits<char> >::basic_ios<char,std::char_traits<char> >
PUBLIC	??0?$basic_ostream@DU?$char_traits@D@std@@@std@@QAE@PAV?$basic_streambuf@DU?$char_traits@D@std@@@1@_N@Z ; std::basic_ostream<char,std::char_traits<char> >::basic_ostream<char,std::char_traits<char> >
PUBLIC	??0locale@std@@QAE@XZ				; std::locale::locale
PUBLIC	??0?$basic_streambuf@DU?$char_traits@D@std@@@std@@IAE@XZ ; std::basic_streambuf<char,std::char_traits<char> >::basic_streambuf<char,std::char_traits<char> >
PUBLIC	??0?$basic_filebuf@DU?$char_traits@D@std@@@std@@QAE@PAU_iobuf@@@Z ; std::basic_filebuf<char,std::char_traits<char> >::basic_filebuf<char,std::char_traits<char> >
PUBLIC	??0?$basic_ofstream@DU?$char_traits@D@std@@@std@@QAE@XZ ; std::basic_ofstream<char,std::char_traits<char> >::basic_ofstream<char,std::char_traits<char> >
PUBLIC	??_Gios_base@std@@UAEPAXI@Z			; std::ios_base::`scalar deleting destructor'
PUBLIC	??1ios_base@std@@UAE@XZ				; std::ios_base::~ios_base
PUBLIC	??_G?$basic_ios@DU?$char_traits@D@std@@@std@@UAEPAXI@Z ; std::basic_ios<char,std::char_traits<char> >::`scalar deleting destructor'
PUBLIC	??1?$basic_ios@DU?$char_traits@D@std@@@std@@UAE@XZ ; std::basic_ios<char,std::char_traits<char> >::~basic_ios<char,std::char_traits<char> >
PUBLIC	??_D?$basic_ostream@DU?$char_traits@D@std@@@std@@QAEXXZ ; std::basic_ostream<char,std::char_traits<char> >::`vbase destructor'
PUBLIC	??_G?$basic_ostream@DU?$char_traits@D@std@@@std@@UAEPAXI@Z ; std::basic_ostream<char,std::char_traits<char> >::`scalar deleting destructor'
PUBLIC	??1?$basic_ostream@DU?$char_traits@D@std@@@std@@UAE@XZ ; std::basic_ostream<char,std::char_traits<char> >::~basic_ostream<char,std::char_traits<char> >
PUBLIC	?_Decref@facet@locale@std@@QAEPAV123@XZ		; std::locale::facet::_Decref
PUBLIC	??1locale@std@@QAE@XZ				; std::locale::~locale
PUBLIC	??_Glocale@std@@QAEPAXI@Z			; std::locale::`scalar deleting destructor'
PUBLIC	?_Lock@?$basic_streambuf@DU?$char_traits@D@std@@@std@@UAEXXZ ; std::basic_streambuf<char,std::char_traits<char> >::_Lock
PUBLIC	?_Unlock@?$basic_streambuf@DU?$char_traits@D@std@@@std@@UAEXXZ ; std::basic_streambuf<char,std::char_traits<char> >::_Unlock
PUBLIC	?overflow@?$basic_streambuf@DU?$char_traits@D@std@@@std@@MAEHH@Z ; std::basic_streambuf<char,std::char_traits<char> >::overflow
PUBLIC	?pbackfail@?$basic_streambuf@DU?$char_traits@D@std@@@std@@MAEHH@Z ; std::basic_streambuf<char,std::char_traits<char> >::pbackfail
PUBLIC	?underflow@?$basic_streambuf@DU?$char_traits@D@std@@@std@@MAEHXZ ; std::basic_streambuf<char,std::char_traits<char> >::underflow
PUBLIC	?uflow@?$basic_streambuf@DU?$char_traits@D@std@@@std@@MAEHXZ ; std::basic_streambuf<char,std::char_traits<char> >::uflow
PUBLIC	?seekoff@?$basic_streambuf@DU?$char_traits@D@std@@@std@@MAE?AV?$fpos@H@2@_JHH@Z ; std::basic_streambuf<char,std::char_traits<char> >::seekoff
PUBLIC	?seekpos@?$basic_streambuf@DU?$char_traits@D@std@@@std@@MAE?AV?$fpos@H@2@V32@H@Z ; std::basic_streambuf<char,std::char_traits<char> >::seekpos
PUBLIC	?setbuf@?$basic_streambuf@DU?$char_traits@D@std@@@std@@MAEPAV12@PAD_J@Z ; std::basic_streambuf<char,std::char_traits<char> >::setbuf
PUBLIC	?sync@?$basic_streambuf@DU?$char_traits@D@std@@@std@@MAEHXZ ; std::basic_streambuf<char,std::char_traits<char> >::sync
PUBLIC	?imbue@?$basic_streambuf@DU?$char_traits@D@std@@@std@@MAEXABVlocale@2@@Z ; std::basic_streambuf<char,std::char_traits<char> >::imbue
PUBLIC	??_G?$basic_streambuf@DU?$char_traits@D@std@@@std@@UAEPAXI@Z ; std::basic_streambuf<char,std::char_traits<char> >::`scalar deleting destructor'
PUBLIC	??1?$basic_streambuf@DU?$char_traits@D@std@@@std@@UAE@XZ ; std::basic_streambuf<char,std::char_traits<char> >::~basic_streambuf<char,std::char_traits<char> >
PUBLIC	?close@?$basic_filebuf@DU?$char_traits@D@std@@@std@@QAEPAV12@XZ ; std::basic_filebuf<char,std::char_traits<char> >::close
PUBLIC	?showmanyc@?$basic_streambuf@DU?$char_traits@D@std@@@std@@MAE_JXZ ; std::basic_streambuf<char,std::char_traits<char> >::showmanyc
PUBLIC	?gbump@?$basic_streambuf@DU?$char_traits@D@std@@@std@@IAEXH@Z ; std::basic_streambuf<char,std::char_traits<char> >::gbump
PUBLIC	?_Gnavail@?$basic_streambuf@DU?$char_traits@D@std@@@std@@IBE_JXZ ; std::basic_streambuf<char,std::char_traits<char> >::_Gnavail
PUBLIC	?xsgetn@?$basic_streambuf@DU?$char_traits@D@std@@@std@@MAE_JPAD_J@Z ; std::basic_streambuf<char,std::char_traits<char> >::xsgetn
PUBLIC	?pbump@?$basic_streambuf@DU?$char_traits@D@std@@@std@@IAEXH@Z ; std::basic_streambuf<char,std::char_traits<char> >::pbump
PUBLIC	?_Pnavail@?$basic_streambuf@DU?$char_traits@D@std@@@std@@IBE_JXZ ; std::basic_streambuf<char,std::char_traits<char> >::_Pnavail
PUBLIC	?xsputn@?$basic_streambuf@DU?$char_traits@D@std@@@std@@MAE_JPBD_J@Z ; std::basic_streambuf<char,std::char_traits<char> >::xsputn
PUBLIC	?_Lock@?$basic_filebuf@DU?$char_traits@D@std@@@std@@UAEXXZ ; std::basic_filebuf<char,std::char_traits<char> >::_Lock
PUBLIC	?_Unlock@?$basic_filebuf@DU?$char_traits@D@std@@@std@@UAEXXZ ; std::basic_filebuf<char,std::char_traits<char> >::_Unlock
PUBLIC	?pptr@?$basic_streambuf@DU?$char_traits@D@std@@@std@@IBEPADXZ ; std::basic_streambuf<char,std::char_traits<char> >::pptr
PUBLIC	?epptr@?$basic_streambuf@DU?$char_traits@D@std@@@std@@IBEPADXZ ; std::basic_streambuf<char,std::char_traits<char> >::epptr
PUBLIC	?_Pninc@?$basic_streambuf@DU?$char_traits@D@std@@@std@@IAEPADXZ ; std::basic_streambuf<char,std::char_traits<char> >::_Pninc
PUBLIC	??$_Fputc@D@std@@YA_NDPAU_iobuf@@@Z		; std::_Fputc<char>
PUBLIC	?out@?$codecvt@DDH@std@@QBEHAAHPBD1AAPBDPAD3AAPAD@Z ; std::codecvt<char,char,int>::out
PUBLIC	?overflow@?$basic_filebuf@DU?$char_traits@D@std@@@std@@MAEHH@Z ; std::basic_filebuf<char,std::char_traits<char> >::overflow
PUBLIC	?to_char_type@?$char_traits@D@std@@SADABH@Z	; std::char_traits<char>::to_char_type
PUBLIC	?not_eof@?$char_traits@D@std@@SAHABH@Z		; std::char_traits<char>::not_eof
PUBLIC	?_Gndec@?$basic_streambuf@DU?$char_traits@D@std@@@std@@IAEPADXZ ; std::basic_streambuf<char,std::char_traits<char> >::_Gndec
PUBLIC	??$_Ungetc@D@std@@YA_NABDPAU_iobuf@@@Z		; std::_Ungetc<char>
PUBLIC	?_Set_back@?$basic_filebuf@DU?$char_traits@D@std@@@std@@AAEXXZ ; std::basic_filebuf<char,std::char_traits<char> >::_Set_back
PUBLIC	?pbackfail@?$basic_filebuf@DU?$char_traits@D@std@@@std@@MAEHH@Z ; std::basic_filebuf<char,std::char_traits<char> >::pbackfail
PUBLIC	?underflow@?$basic_filebuf@DU?$char_traits@D@std@@@std@@MAEHXZ ; std::basic_filebuf<char,std::char_traits<char> >::underflow
PUBLIC	?to_int_type@?$char_traits@D@std@@SAHABD@Z	; std::char_traits<char>::to_int_type
PUBLIC	??0?$basic_string@DU?$char_traits@D@std@@V?$allocator@D@2@@std@@QAE@XZ ; std::basic_string<char,std::char_traits<char>,std::allocator<char> >::basic_string<char,std::char_traits<char>,std::allocator<char> >
PUBLIC	?move@?$char_traits@D@std@@SAPADPADPBDI@Z	; std::char_traits<char>::move
PUBLIC	?_Xran@?$basic_string@DU?$char_traits@D@std@@V?$allocator@D@2@@std@@QBEXXZ ; std::basic_string<char,std::char_traits<char>,std::allocator<char> >::_Xran
PUBLIC	?erase@?$basic_string@DU?$char_traits@D@std@@V?$allocator@D@2@@std@@QAEAAV12@II@Z ; std::basic_string<char,std::char_traits<char>,std::allocator<char> >::erase
PUBLIC	?egptr@?$basic_streambuf@DU?$char_traits@D@std@@@std@@IBEPADXZ ; std::basic_streambuf<char,std::char_traits<char> >::egptr
PUBLIC	?_Gninc@?$basic_streambuf@DU?$char_traits@D@std@@@std@@IAEPADXZ ; std::basic_streambuf<char,std::char_traits<char> >::_Gninc
PUBLIC	??$_Fgetc@D@std@@YA_NAADPAU_iobuf@@@Z		; std::_Fgetc<char>
PUBLIC	?in@?$codecvt@DDH@std@@QBEHAAHPBD1AAPBDPAD3AAPAD@Z ; std::codecvt<char,char,int>::in
PUBLIC	?uflow@?$basic_filebuf@DU?$char_traits@D@std@@@std@@MAEHXZ ; std::basic_filebuf<char,std::char_traits<char> >::uflow
PUBLIC	?gptr@?$basic_streambuf@DU?$char_traits@D@std@@@std@@IBEPADXZ ; std::basic_streambuf<char,std::char_traits<char> >::gptr
PUBLIC	?seekoff@?$basic_filebuf@DU?$char_traits@D@std@@@std@@MAE?AV?$fpos@H@2@_JHH@Z ; std::basic_filebuf<char,std::char_traits<char> >::seekoff
PUBLIC	??0?$allocator@D@std@@QAE@XZ			; std::allocator<char>::allocator<char>
PUBLIC	??0?$allocator@D@std@@QAE@ABV01@@Z		; std::allocator<char>::allocator<char>
PUBLIC	??0?$_String_val@DV?$allocator@D@std@@@std@@QAE@V?$allocator@D@1@@Z ; std::_String_val<char,std::allocator<char> >::_String_val<char,std::allocator<char> >
PUBLIC	?assign@?$basic_string@DU?$char_traits@D@std@@V?$allocator@D@2@@std@@QAEAAV12@ID@Z ; std::basic_string<char,std::char_traits<char>,std::allocator<char> >::assign
PUBLIC	??0?$basic_string@DU?$char_traits@D@std@@V?$allocator@D@2@@std@@QAE@ID@Z ; std::basic_string<char,std::char_traits<char>,std::allocator<char> >::basic_string<char,std::char_traits<char>,std::allocator<char> >
PUBLIC	??1?$_String_val@DV?$allocator@D@std@@@std@@QAE@XZ ; std::_String_val<char,std::allocator<char> >::~_String_val<char,std::allocator<char> >
PUBLIC	??1?$basic_string@DU?$char_traits@D@std@@V?$allocator@D@2@@std@@QAE@XZ ; std::basic_string<char,std::char_traits<char>,std::allocator<char> >::~basic_string<char,std::char_traits<char>,std::allocator<char> >
PUBLIC	?assign@?$char_traits@D@std@@SAPADPADID@Z	; std::char_traits<char>::assign
PUBLIC	?_Chassign@?$basic_string@DU?$char_traits@D@std@@V?$allocator@D@2@@std@@QAEXIID@Z ; std::basic_string<char,std::char_traits<char>,std::allocator<char> >::_Chassign
PUBLIC	??0bad_alloc@std@@QAE@PBD@Z			; std::bad_alloc::bad_alloc
PUBLIC	??1bad_alloc@std@@UAE@XZ			; std::bad_alloc::~bad_alloc
PUBLIC	??_Gbad_alloc@std@@UAEPAXI@Z			; std::bad_alloc::`scalar deleting destructor'
PUBLIC	??0bad_alloc@std@@QAE@ABV01@@Z			; std::bad_alloc::bad_alloc
PUBLIC	??$_Allocate@D@std@@YAPADIPAD@Z			; std::_Allocate<char>
PUBLIC	?allocate@?$allocator@D@std@@QAEPADI@Z		; std::allocator<char>::allocate
PUBLIC	?max_size@?$allocator@D@std@@QBEIXZ		; std::allocator<char>::max_size
PUBLIC	?max_size@?$basic_string@DU?$char_traits@D@std@@V?$allocator@D@2@@std@@QBEIXZ ; std::basic_string<char,std::char_traits<char>,std::allocator<char> >::max_size
PUBLIC	?_Copy@?$basic_string@DU?$char_traits@D@std@@V?$allocator@D@2@@std@@QAEXII@Z ; std::basic_string<char,std::char_traits<char>,std::allocator<char> >::_Copy
PUBLIC	?copy@?$char_traits@D@std@@SAPADPADPBDI@Z	; std::char_traits<char>::copy
PUBLIC	?deallocate@?$allocator@D@std@@QAEXPADI@Z	; std::allocator<char>::deallocate
PUBLIC	?assign@?$char_traits@D@std@@SAXAADABD@Z	; std::char_traits<char>::assign
PUBLIC	?_Eos@?$basic_string@DU?$char_traits@D@std@@V?$allocator@D@2@@std@@QAEXI@Z ; std::basic_string<char,std::char_traits<char>,std::allocator<char> >::_Eos
PUBLIC	?_Tidy@?$basic_string@DU?$char_traits@D@std@@V?$allocator@D@2@@std@@QAEX_NI@Z ; std::basic_string<char,std::char_traits<char>,std::allocator<char> >::_Tidy
PUBLIC	?_Grow@?$basic_string@DU?$char_traits@D@std@@V?$allocator@D@2@@std@@QAE_NI_N@Z ; std::basic_string<char,std::char_traits<char>,std::allocator<char> >::_Grow
PUBLIC	?_Xlen@?$basic_string@DU?$char_traits@D@std@@V?$allocator@D@2@@std@@QBEXXZ ; std::basic_string<char,std::char_traits<char>,std::allocator<char> >::_Xlen
PUBLIC	?append@?$basic_string@DU?$char_traits@D@std@@V?$allocator@D@2@@std@@QAEAAV12@ID@Z ; std::basic_string<char,std::char_traits<char>,std::allocator<char> >::append
PUBLIC	?_Myptr@?$basic_string@DU?$char_traits@D@std@@V?$allocator@D@2@@std@@QAEPADXZ ; std::basic_string<char,std::char_traits<char>,std::allocator<char> >::_Myptr
PUBLIC	?_Adopt@_Iterator_base0@std@@QAEXPBX@Z		; std::_Iterator_base0::_Adopt
PUBLIC	??0?$_String_const_iterator@DU?$char_traits@D@std@@V?$allocator@D@2@@std@@QAE@PBDPBU_Container_base0@1@@Z ; std::_String_const_iterator<char,std::char_traits<char>,std::allocator<char> >::_String_const_iterator<char,std::char_traits<char>,std::allocator<char> >
PUBLIC	??0?$_String_iterator@DU?$char_traits@D@std@@V?$allocator@D@2@@std@@QAE@PADPBU_Container_base0@1@@Z ; std::_String_iterator<char,std::char_traits<char>,std::allocator<char> >::_String_iterator<char,std::char_traits<char>,std::allocator<char> >
PUBLIC	?begin@?$basic_string@DU?$char_traits@D@std@@V?$allocator@D@2@@std@@QAE?AV?$_String_iterator@DU?$char_traits@D@std@@V?$allocator@D@2@@2@XZ ; std::basic_string<char,std::char_traits<char>,std::allocator<char> >::begin
PUBLIC	?size@?$basic_string@DU?$char_traits@D@std@@V?$allocator@D@2@@std@@QBEIXZ ; std::basic_string<char,std::char_traits<char>,std::allocator<char> >::size
PUBLIC	??D?$_String_const_iterator@DU?$char_traits@D@std@@V?$allocator@D@2@@std@@QBEABDXZ ; std::_String_const_iterator<char,std::char_traits<char>,std::allocator<char> >::operator*
PUBLIC	??D?$_String_iterator@DU?$char_traits@D@std@@V?$allocator@D@2@@std@@QBEAADXZ ; std::_String_iterator<char,std::char_traits<char>,std::allocator<char> >::operator*
PUBLIC	?unshift@?$codecvt@DDH@std@@QBEHAAHPAD1AAPAD@Z	; std::codecvt<char,char,int>::unshift
PUBLIC	?_Endwrite@?$basic_filebuf@DU?$char_traits@D@std@@@std@@IAE_NXZ ; std::basic_filebuf<char,std::char_traits<char> >::_Endwrite
PUBLIC	?eback@?$basic_streambuf@DU?$char_traits@D@std@@@std@@IBEPADXZ ; std::basic_streambuf<char,std::char_traits<char> >::eback
PUBLIC	?_Reset_back@?$basic_filebuf@DU?$char_traits@D@std@@@std@@AAEXXZ ; std::basic_filebuf<char,std::char_traits<char> >::_Reset_back
PUBLIC	??0?$fpos@H@std@@QAE@_J@Z			; std::fpos<int>::fpos<int>
PUBLIC	??0?$fpos@H@std@@QAE@H_J@Z			; std::fpos<int>::fpos<int>
PUBLIC	?state@?$fpos@H@std@@QBEHXZ			; std::fpos<int>::state
PUBLIC	?seekpos@?$fpos@H@std@@QBE_JXZ			; std::fpos<int>::seekpos
PUBLIC	??B?$fpos@H@std@@QBE_JXZ			; std::fpos<int>::operator __int64
PUBLIC	?seekpos@?$basic_filebuf@DU?$char_traits@D@std@@@std@@MAE?AV?$fpos@H@2@V32@H@Z ; std::basic_filebuf<char,std::char_traits<char> >::seekpos
PUBLIC	?_Init@?$basic_streambuf@DU?$char_traits@D@std@@@std@@IAEXPAPAD0PAH001@Z ; std::basic_streambuf<char,std::char_traits<char> >::_Init
PUBLIC	?_Init@?$basic_filebuf@DU?$char_traits@D@std@@@std@@IAEXPAU_iobuf@@W4_Initfl@12@@Z ; std::basic_filebuf<char,std::char_traits<char> >::_Init
PUBLIC	?setbuf@?$basic_filebuf@DU?$char_traits@D@std@@@std@@MAEPAV?$basic_streambuf@DU?$char_traits@D@std@@@2@PAD_J@Z ; std::basic_filebuf<char,std::char_traits<char> >::setbuf
PUBLIC	?eq_int_type@?$char_traits@D@std@@SA_NABH0@Z	; std::char_traits<char>::eq_int_type
PUBLIC	?eof@?$char_traits@D@std@@SAHXZ			; std::char_traits<char>::eof
PUBLIC	?sync@?$basic_filebuf@DU?$char_traits@D@std@@@std@@MAEHXZ ; std::basic_filebuf<char,std::char_traits<char> >::sync
PUBLIC	?always_noconv@codecvt_base@std@@QBE_NXZ	; std::codecvt_base::always_noconv
PUBLIC	?setg@?$basic_streambuf@DU?$char_traits@D@std@@@std@@IAEXPAD00@Z ; std::basic_streambuf<char,std::char_traits<char> >::setg
PUBLIC	?setp@?$basic_streambuf@DU?$char_traits@D@std@@@std@@IAEXPAD0@Z ; std::basic_streambuf<char,std::char_traits<char> >::setp
PUBLIC	?_Init@?$basic_streambuf@DU?$char_traits@D@std@@@std@@IAEXXZ ; std::basic_streambuf<char,std::char_traits<char> >::_Init
PUBLIC	?_Initcvt@?$basic_filebuf@DU?$char_traits@D@std@@@std@@IAEXPBV?$codecvt@DDH@2@@Z ; std::basic_filebuf<char,std::char_traits<char> >::_Initcvt
PUBLIC	??Bid@locale@std@@QAEIXZ			; std::locale::id::operator unsigned int
PUBLIC	?_Incref@facet@locale@std@@QAEXXZ		; std::locale::facet::_Incref
PUBLIC	?_Register@facet@locale@std@@QAEXXZ		; std::locale::facet::_Register
PUBLIC	?_Getfacet@locale@std@@QBEPBVfacet@12@I@Z	; std::locale::_Getfacet
PUBLIC	??0runtime_error@std@@QAE@PBD@Z			; std::runtime_error::runtime_error
PUBLIC	??0?$_Yarn@D@std@@QAE@XZ			; std::_Yarn<char>::_Yarn<char>
PUBLIC	??1runtime_error@std@@UAE@XZ			; std::runtime_error::~runtime_error
PUBLIC	??_Gruntime_error@std@@UAEPAXI@Z		; std::runtime_error::`scalar deleting destructor'
PUBLIC	??0runtime_error@std@@QAE@ABV01@@Z		; std::runtime_error::runtime_error
PUBLIC	??0_Locinfo@std@@QAE@PBD@Z			; std::_Locinfo::_Locinfo
PUBLIC	?_Tidy@?$_Yarn@D@std@@AAEXXZ			; std::_Yarn<char>::_Tidy
PUBLIC	??1?$_Yarn@D@std@@QAE@XZ			; std::_Yarn<char>::~_Yarn<char>
PUBLIC	??1_Locinfo@std@@QAE@XZ				; std::_Locinfo::~_Locinfo
PUBLIC	?c_str@?$_Yarn@D@std@@QBEPBDXZ			; std::_Yarn<char>::c_str
PUBLIC	?c_str@locale@std@@QBEPBDXZ			; std::locale::c_str
PUBLIC	??0facet@locale@std@@IAE@I@Z			; std::locale::facet::facet
PUBLIC	??0codecvt_base@std@@QAE@I@Z			; std::codecvt_base::codecvt_base
PUBLIC	?_Init@?$codecvt@DDH@std@@IAEXABV_Locinfo@2@@Z	; std::codecvt<char,char,int>::_Init
PUBLIC	?do_in@?$codecvt@DDH@std@@MBEHAAHPBD1AAPBDPAD3AAPAD@Z ; std::codecvt<char,char,int>::do_in
PUBLIC	?do_out@?$codecvt@DDH@std@@MBEHAAHPBD1AAPBDPAD3AAPAD@Z ; std::codecvt<char,char,int>::do_out
PUBLIC	?do_unshift@?$codecvt@DDH@std@@MBEHAAHPAD1AAPAD@Z ; std::codecvt<char,char,int>::do_unshift
PUBLIC	?do_length@?$codecvt@DDH@std@@MBEHABHPBD1I@Z	; std::codecvt<char,char,int>::do_length
PUBLIC	??_Gfacet@locale@std@@UAEPAXI@Z			; std::locale::facet::`scalar deleting destructor'
PUBLIC	??1facet@locale@std@@UAE@XZ			; std::locale::facet::~facet
PUBLIC	?do_always_noconv@codecvt_base@std@@MBE_NXZ	; std::codecvt_base::do_always_noconv
PUBLIC	?do_max_length@codecvt_base@std@@MBEHXZ		; std::codecvt_base::do_max_length
PUBLIC	?do_encoding@codecvt_base@std@@MBEHXZ		; std::codecvt_base::do_encoding
PUBLIC	??_Gcodecvt_base@std@@UAEPAXI@Z			; std::codecvt_base::`scalar deleting destructor'
PUBLIC	??1codecvt_base@std@@UAE@XZ			; std::codecvt_base::~codecvt_base
PUBLIC	??1?$codecvt@DDH@std@@MAE@XZ			; std::codecvt<char,char,int>::~codecvt<char,char,int>
PUBLIC	??_G?$codecvt@DDH@std@@MAEPAXI@Z		; std::codecvt<char,char,int>::`scalar deleting destructor'
PUBLIC	??0?$codecvt@DDH@std@@QAE@ABV_Locinfo@1@I@Z	; std::codecvt<char,char,int>::codecvt<char,char,int>
PUBLIC	?_Getcat@?$codecvt@DDH@std@@SAIPAPBVfacet@locale@2@PBV42@@Z ; std::codecvt<char,char,int>::_Getcat
PUBLIC	??$use_facet@V?$codecvt@DDH@std@@@std@@YAABV?$codecvt@DDH@0@ABVlocale@0@@Z ; std::use_facet<std::codecvt<char,char,int> >
PUBLIC	?imbue@?$basic_filebuf@DU?$char_traits@D@std@@@std@@MAEXABVlocale@2@@Z ; std::basic_filebuf<char,std::char_traits<char> >::imbue
PUBLIC	??_G?$basic_filebuf@DU?$char_traits@D@std@@@std@@UAEPAXI@Z ; std::basic_filebuf<char,std::char_traits<char> >::`scalar deleting destructor'
PUBLIC	??1?$basic_filebuf@DU?$char_traits@D@std@@@std@@UAE@XZ ; std::basic_filebuf<char,std::char_traits<char> >::~basic_filebuf<char,std::char_traits<char> >
PUBLIC	??_G?$basic_ofstream@DU?$char_traits@D@std@@@std@@UAEPAXI@Z ; std::basic_ofstream<char,std::char_traits<char> >::`scalar deleting destructor'
PUBLIC	??1?$basic_ofstream@DU?$char_traits@D@std@@@std@@UAE@XZ ; std::basic_ofstream<char,std::char_traits<char> >::~basic_ofstream<char,std::char_traits<char> >
PUBLIC	??_D?$basic_ofstream@DU?$char_traits@D@std@@@std@@QAEXXZ ; std::basic_ofstream<char,std::char_traits<char> >::`vbase destructor'
PUBLIC	??0id@locale@std@@QAE@I@Z			; std::locale::id::id
PUBLIC	??_C@_00CNPNBAHC@?$AA@				; `string'
PUBLIC	?has_denorm@_Num_base@std@@2W4float_denorm_style@2@B ; std::_Num_base::has_denorm
PUBLIC	?has_denorm_loss@_Num_base@std@@2_NB		; std::_Num_base::has_denorm_loss
PUBLIC	?has_infinity@_Num_base@std@@2_NB		; std::_Num_base::has_infinity
PUBLIC	?has_quiet_NaN@_Num_base@std@@2_NB		; std::_Num_base::has_quiet_NaN
PUBLIC	?has_signaling_NaN@_Num_base@std@@2_NB		; std::_Num_base::has_signaling_NaN
PUBLIC	?is_bounded@_Num_base@std@@2_NB			; std::_Num_base::is_bounded
PUBLIC	?is_exact@_Num_base@std@@2_NB			; std::_Num_base::is_exact
PUBLIC	?is_iec559@_Num_base@std@@2_NB			; std::_Num_base::is_iec559
PUBLIC	?is_integer@_Num_base@std@@2_NB			; std::_Num_base::is_integer
PUBLIC	?is_modulo@_Num_base@std@@2_NB			; std::_Num_base::is_modulo
PUBLIC	?is_signed@_Num_base@std@@2_NB			; std::_Num_base::is_signed
PUBLIC	?is_specialized@_Num_base@std@@2_NB		; std::_Num_base::is_specialized
PUBLIC	?tinyness_before@_Num_base@std@@2_NB		; std::_Num_base::tinyness_before
PUBLIC	?traps@_Num_base@std@@2_NB			; std::_Num_base::traps
PUBLIC	?round_style@_Num_base@std@@2W4float_round_style@2@B ; std::_Num_base::round_style
PUBLIC	?digits@_Num_base@std@@2HB			; std::_Num_base::digits
PUBLIC	?digits10@_Num_base@std@@2HB			; std::_Num_base::digits10
PUBLIC	?max_digits10@_Num_base@std@@2HB		; std::_Num_base::max_digits10
PUBLIC	?max_exponent@_Num_base@std@@2HB		; std::_Num_base::max_exponent
PUBLIC	?max_exponent10@_Num_base@std@@2HB		; std::_Num_base::max_exponent10
PUBLIC	?min_exponent@_Num_base@std@@2HB		; std::_Num_base::min_exponent
PUBLIC	?min_exponent10@_Num_base@std@@2HB		; std::_Num_base::min_exponent10
PUBLIC	?radix@_Num_base@std@@2HB			; std::_Num_base::radix
PUBLIC	?is_bounded@_Num_int_base@std@@2_NB		; std::_Num_int_base::is_bounded
PUBLIC	?is_exact@_Num_int_base@std@@2_NB		; std::_Num_int_base::is_exact
PUBLIC	?is_integer@_Num_int_base@std@@2_NB		; std::_Num_int_base::is_integer
PUBLIC	?is_modulo@_Num_int_base@std@@2_NB		; std::_Num_int_base::is_modulo
PUBLIC	?is_specialized@_Num_int_base@std@@2_NB		; std::_Num_int_base::is_specialized
PUBLIC	?radix@_Num_int_base@std@@2HB			; std::_Num_int_base::radix
PUBLIC	?has_denorm@_Num_float_base@std@@2W4float_denorm_style@2@B ; std::_Num_float_base::has_denorm
PUBLIC	?has_denorm_loss@_Num_float_base@std@@2_NB	; std::_Num_float_base::has_denorm_loss
PUBLIC	?has_infinity@_Num_float_base@std@@2_NB		; std::_Num_float_base::has_infinity
PUBLIC	?has_quiet_NaN@_Num_float_base@std@@2_NB	; std::_Num_float_base::has_quiet_NaN
PUBLIC	?has_signaling_NaN@_Num_float_base@std@@2_NB	; std::_Num_float_base::has_signaling_NaN
PUBLIC	?is_bounded@_Num_float_base@std@@2_NB		; std::_Num_float_base::is_bounded
PUBLIC	?is_exact@_Num_float_base@std@@2_NB		; std::_Num_float_base::is_exact
PUBLIC	?is_iec559@_Num_float_base@std@@2_NB		; std::_Num_float_base::is_iec559
PUBLIC	?is_integer@_Num_float_base@std@@2_NB		; std::_Num_float_base::is_integer
PUBLIC	?is_modulo@_Num_float_base@std@@2_NB		; std::_Num_float_base::is_modulo
PUBLIC	?is_signed@_Num_float_base@std@@2_NB		; std::_Num_float_base::is_signed
PUBLIC	?is_specialized@_Num_float_base@std@@2_NB	; std::_Num_float_base::is_specialized
PUBLIC	?tinyness_before@_Num_float_base@std@@2_NB	; std::_Num_float_base::tinyness_before
PUBLIC	?traps@_Num_float_base@std@@2_NB		; std::_Num_float_base::traps
PUBLIC	?round_style@_Num_float_base@std@@2W4float_round_style@2@B ; std::_Num_float_base::round_style
PUBLIC	?radix@_Num_float_base@std@@2HB			; std::_Num_float_base::radix
PUBLIC	?is_signed@?$numeric_limits@D@std@@2_NB		; std::numeric_limits<char>::is_signed
PUBLIC	?digits@?$numeric_limits@D@std@@2HB		; std::numeric_limits<char>::digits
PUBLIC	?digits10@?$numeric_limits@D@std@@2HB		; std::numeric_limits<char>::digits10
PUBLIC	?max_digits10@?$numeric_limits@D@std@@2HB	; std::numeric_limits<char>::max_digits10
PUBLIC	?is_signed@?$numeric_limits@_W@std@@2_NB	; std::numeric_limits<wchar_t>::is_signed
PUBLIC	?digits@?$numeric_limits@_W@std@@2HB		; std::numeric_limits<wchar_t>::digits
PUBLIC	?digits10@?$numeric_limits@_W@std@@2HB		; std::numeric_limits<wchar_t>::digits10
PUBLIC	?max_digits10@?$numeric_limits@_W@std@@2HB	; std::numeric_limits<wchar_t>::max_digits10
PUBLIC	?is_modulo@?$numeric_limits@_N@std@@2_NB	; std::numeric_limits<bool>::is_modulo
PUBLIC	?is_signed@?$numeric_limits@_N@std@@2_NB	; std::numeric_limits<bool>::is_signed
PUBLIC	?digits@?$numeric_limits@_N@std@@2HB		; std::numeric_limits<bool>::digits
PUBLIC	?digits10@?$numeric_limits@_N@std@@2HB		; std::numeric_limits<bool>::digits10
PUBLIC	?max_digits10@?$numeric_limits@_N@std@@2HB	; std::numeric_limits<bool>::max_digits10
PUBLIC	?is_signed@?$numeric_limits@C@std@@2_NB		; std::numeric_limits<signed char>::is_signed
PUBLIC	?digits@?$numeric_limits@C@std@@2HB		; std::numeric_limits<signed char>::digits
PUBLIC	?digits10@?$numeric_limits@C@std@@2HB		; std::numeric_limits<signed char>::digits10
PUBLIC	?max_digits10@?$numeric_limits@C@std@@2HB	; std::numeric_limits<signed char>::max_digits10
PUBLIC	?is_signed@?$numeric_limits@E@std@@2_NB		; std::numeric_limits<unsigned char>::is_signed
PUBLIC	?digits@?$numeric_limits@E@std@@2HB		; std::numeric_limits<unsigned char>::digits
PUBLIC	?digits10@?$numeric_limits@E@std@@2HB		; std::numeric_limits<unsigned char>::digits10
PUBLIC	?max_digits10@?$numeric_limits@E@std@@2HB	; std::numeric_limits<unsigned char>::max_digits10
PUBLIC	?is_signed@?$numeric_limits@F@std@@2_NB		; std::numeric_limits<short>::is_signed
PUBLIC	?digits@?$numeric_limits@F@std@@2HB		; std::numeric_limits<short>::digits
PUBLIC	?digits10@?$numeric_limits@F@std@@2HB		; std::numeric_limits<short>::digits10
PUBLIC	?max_digits10@?$numeric_limits@F@std@@2HB	; std::numeric_limits<short>::max_digits10
PUBLIC	?is_signed@?$numeric_limits@G@std@@2_NB		; std::numeric_limits<unsigned short>::is_signed
PUBLIC	?digits@?$numeric_limits@G@std@@2HB		; std::numeric_limits<unsigned short>::digits
PUBLIC	?digits10@?$numeric_limits@G@std@@2HB		; std::numeric_limits<unsigned short>::digits10
PUBLIC	?max_digits10@?$numeric_limits@G@std@@2HB	; std::numeric_limits<unsigned short>::max_digits10
PUBLIC	?is_signed@?$numeric_limits@H@std@@2_NB		; std::numeric_limits<int>::is_signed
PUBLIC	?digits@?$numeric_limits@H@std@@2HB		; std::numeric_limits<int>::digits
PUBLIC	?digits10@?$numeric_limits@H@std@@2HB		; std::numeric_limits<int>::digits10
PUBLIC	?max_digits10@?$numeric_limits@H@std@@2HB	; std::numeric_limits<int>::max_digits10
PUBLIC	?is_signed@?$numeric_limits@I@std@@2_NB		; std::numeric_limits<unsigned int>::is_signed
PUBLIC	?digits@?$numeric_limits@I@std@@2HB		; std::numeric_limits<unsigned int>::digits
PUBLIC	?digits10@?$numeric_limits@I@std@@2HB		; std::numeric_limits<unsigned int>::digits10
PUBLIC	?max_digits10@?$numeric_limits@I@std@@2HB	; std::numeric_limits<unsigned int>::max_digits10
PUBLIC	?is_signed@?$numeric_limits@J@std@@2_NB		; std::numeric_limits<long>::is_signed
PUBLIC	?digits@?$numeric_limits@J@std@@2HB		; std::numeric_limits<long>::digits
PUBLIC	?digits10@?$numeric_limits@J@std@@2HB		; std::numeric_limits<long>::digits10
PUBLIC	?max_digits10@?$numeric_limits@J@std@@2HB	; std::numeric_limits<long>::max_digits10
PUBLIC	?is_signed@?$numeric_limits@K@std@@2_NB		; std::numeric_limits<unsigned long>::is_signed
PUBLIC	?digits@?$numeric_limits@K@std@@2HB		; std::numeric_limits<unsigned long>::digits
PUBLIC	?digits10@?$numeric_limits@K@std@@2HB		; std::numeric_limits<unsigned long>::digits10
PUBLIC	?max_digits10@?$numeric_limits@K@std@@2HB	; std::numeric_limits<unsigned long>::max_digits10
PUBLIC	?is_signed@?$numeric_limits@_J@std@@2_NB	; std::numeric_limits<__int64>::is_signed
PUBLIC	?digits@?$numeric_limits@_J@std@@2HB		; std::numeric_limits<__int64>::digits
PUBLIC	?digits10@?$numeric_limits@_J@std@@2HB		; std::numeric_limits<__int64>::digits10
PUBLIC	?max_digits10@?$numeric_limits@_J@std@@2HB	; std::numeric_limits<__int64>::max_digits10
PUBLIC	?is_signed@?$numeric_limits@_K@std@@2_NB	; std::numeric_limits<unsigned __int64>::is_signed
PUBLIC	?digits@?$numeric_limits@_K@std@@2HB		; std::numeric_limits<unsigned __int64>::digits
PUBLIC	?digits10@?$numeric_limits@_K@std@@2HB		; std::numeric_limits<unsigned __int64>::digits10
PUBLIC	?max_digits10@?$numeric_limits@_K@std@@2HB	; std::numeric_limits<unsigned __int64>::max_digits10
PUBLIC	?digits@?$numeric_limits@M@std@@2HB		; std::numeric_limits<float>::digits
PUBLIC	?digits10@?$numeric_limits@M@std@@2HB		; std::numeric_limits<float>::digits10
PUBLIC	?max_digits10@?$numeric_limits@M@std@@2HB	; std::numeric_limits<float>::max_digits10
PUBLIC	?max_exponent@?$numeric_limits@M@std@@2HB	; std::numeric_limits<float>::max_exponent
PUBLIC	?max_exponent10@?$numeric_limits@M@std@@2HB	; std::numeric_limits<float>::max_exponent10
PUBLIC	?min_exponent@?$numeric_limits@M@std@@2HB	; std::numeric_limits<float>::min_exponent
PUBLIC	?min_exponent10@?$numeric_limits@M@std@@2HB	; std::numeric_limits<float>::min_exponent10
PUBLIC	?digits@?$numeric_limits@N@std@@2HB		; std::numeric_limits<double>::digits
PUBLIC	?digits10@?$numeric_limits@N@std@@2HB		; std::numeric_limits<double>::digits10
PUBLIC	?max_digits10@?$numeric_limits@N@std@@2HB	; std::numeric_limits<double>::max_digits10
PUBLIC	?max_exponent@?$numeric_limits@N@std@@2HB	; std::numeric_limits<double>::max_exponent
PUBLIC	?max_exponent10@?$numeric_limits@N@std@@2HB	; std::numeric_limits<double>::max_exponent10
PUBLIC	?min_exponent@?$numeric_limits@N@std@@2HB	; std::numeric_limits<double>::min_exponent
PUBLIC	?min_exponent10@?$numeric_limits@N@std@@2HB	; std::numeric_limits<double>::min_exponent10
PUBLIC	?digits@?$numeric_limits@O@std@@2HB		; std::numeric_limits<long double>::digits
PUBLIC	?digits10@?$numeric_limits@O@std@@2HB		; std::numeric_limits<long double>::digits10
PUBLIC	?max_digits10@?$numeric_limits@O@std@@2HB	; std::numeric_limits<long double>::max_digits10
PUBLIC	?max_exponent@?$numeric_limits@O@std@@2HB	; std::numeric_limits<long double>::max_exponent
PUBLIC	?max_exponent10@?$numeric_limits@O@std@@2HB	; std::numeric_limits<long double>::max_exponent10
PUBLIC	?min_exponent@?$numeric_limits@O@std@@2HB	; std::numeric_limits<long double>::min_exponent
PUBLIC	?min_exponent10@?$numeric_limits@O@std@@2HB	; std::numeric_limits<long double>::min_exponent10
PUBLIC	?value@?$integral_constant@_N$0A@@tr1@std@@2_NB	; std::tr1::integral_constant<bool,0>::value
PUBLIC	?value@?$integral_constant@_N$00@tr1@std@@2_NB	; std::tr1::integral_constant<bool,1>::value
PUBLIC	?value@?$integral_constant@I$0A@@tr1@std@@2IB	; std::tr1::integral_constant<unsigned int,0>::value
PUBLIC	?_Rank@?$_Arithmetic_traits@_N@std@@2HB		; std::_Arithmetic_traits<bool>::_Rank
PUBLIC	?_Rank@?$_Arithmetic_traits@D@std@@2HB		; std::_Arithmetic_traits<char>::_Rank
PUBLIC	?_Rank@?$_Arithmetic_traits@C@std@@2HB		; std::_Arithmetic_traits<signed char>::_Rank
PUBLIC	?_Rank@?$_Arithmetic_traits@E@std@@2HB		; std::_Arithmetic_traits<unsigned char>::_Rank
PUBLIC	?_Rank@?$_Arithmetic_traits@F@std@@2HB		; std::_Arithmetic_traits<short>::_Rank
PUBLIC	?_Rank@?$_Arithmetic_traits@G@std@@2HB		; std::_Arithmetic_traits<unsigned short>::_Rank
PUBLIC	?_Rank@?$_Arithmetic_traits@H@std@@2HB		; std::_Arithmetic_traits<int>::_Rank
PUBLIC	?_Rank@?$_Arithmetic_traits@I@std@@2HB		; std::_Arithmetic_traits<unsigned int>::_Rank
PUBLIC	?_Rank@?$_Arithmetic_traits@J@std@@2HB		; std::_Arithmetic_traits<long>::_Rank
PUBLIC	?_Rank@?$_Arithmetic_traits@K@std@@2HB		; std::_Arithmetic_traits<unsigned long>::_Rank
PUBLIC	?_Rank@?$_Arithmetic_traits@_J@std@@2HB		; std::_Arithmetic_traits<__int64>::_Rank
PUBLIC	?_Rank@?$_Arithmetic_traits@_K@std@@2HB		; std::_Arithmetic_traits<unsigned __int64>::_Rank
PUBLIC	?_Rank@?$_Arithmetic_traits@M@std@@2HB		; std::_Arithmetic_traits<float>::_Rank
PUBLIC	?_Rank@?$_Arithmetic_traits@N@std@@2HB		; std::_Arithmetic_traits<double>::_Rank
PUBLIC	?_Rank@?$_Arithmetic_traits@O@std@@2HB		; std::_Arithmetic_traits<long double>::_Rank
PUBLIC	??_C@_0BA@ELKIONDK@bad?5locale?5name?$AA@	; `string'
PUBLIC	??_R0?AVruntime_error@std@@@8			; std::runtime_error `RTTI Type Descriptor'
PUBLIC	??_R0?AVexception@std@@@8			; std::exception `RTTI Type Descriptor'
PUBLIC	__CT??_R0?AVruntime_error@std@@@8??0runtime_error@std@@QAE@ABV01@@Z12
PUBLIC	__CT??_R0?AVexception@std@@@8??0exception@std@@QAE@ABV01@@Z12
PUBLIC	__CTA2?AVruntime_error@std@@
PUBLIC	__TI2?AVruntime_error@std@@
PUBLIC	??_C@_05LAPONLG@false?$AA@			; `string'
PUBLIC	??_C@_04LOAJBDKD@true?$AA@			; `string'
PUBLIC	?collate@?$_Locbase@H@std@@2HB			; std::_Locbase<int>::collate
PUBLIC	?ctype@?$_Locbase@H@std@@2HB			; std::_Locbase<int>::ctype
PUBLIC	?monetary@?$_Locbase@H@std@@2HB			; std::_Locbase<int>::monetary
PUBLIC	?numeric@?$_Locbase@H@std@@2HB			; std::_Locbase<int>::numeric
PUBLIC	?time@?$_Locbase@H@std@@2HB			; std::_Locbase<int>::time
PUBLIC	?messages@?$_Locbase@H@std@@2HB			; std::_Locbase<int>::messages
PUBLIC	?all@?$_Locbase@H@std@@2HB			; std::_Locbase<int>::all
PUBLIC	?none@?$_Locbase@H@std@@2HB			; std::_Locbase<int>::none
PUBLIC	?table_size@?$ctype@D@std@@2IB			; std::ctype<char>::table_size
PUBLIC	?skipws@?$_Iosb@H@std@@2W4_Fmtflags@12@B	; std::_Iosb<int>::skipws
PUBLIC	?unitbuf@?$_Iosb@H@std@@2W4_Fmtflags@12@B	; std::_Iosb<int>::unitbuf
PUBLIC	?uppercase@?$_Iosb@H@std@@2W4_Fmtflags@12@B	; std::_Iosb<int>::uppercase
PUBLIC	?showbase@?$_Iosb@H@std@@2W4_Fmtflags@12@B	; std::_Iosb<int>::showbase
PUBLIC	?showpoint@?$_Iosb@H@std@@2W4_Fmtflags@12@B	; std::_Iosb<int>::showpoint
PUBLIC	?showpos@?$_Iosb@H@std@@2W4_Fmtflags@12@B	; std::_Iosb<int>::showpos
PUBLIC	?left@?$_Iosb@H@std@@2W4_Fmtflags@12@B		; std::_Iosb<int>::left
PUBLIC	?right@?$_Iosb@H@std@@2W4_Fmtflags@12@B		; std::_Iosb<int>::right
PUBLIC	?internal@?$_Iosb@H@std@@2W4_Fmtflags@12@B	; std::_Iosb<int>::internal
PUBLIC	?dec@?$_Iosb@H@std@@2W4_Fmtflags@12@B		; std::_Iosb<int>::dec
PUBLIC	?oct@?$_Iosb@H@std@@2W4_Fmtflags@12@B		; std::_Iosb<int>::oct
PUBLIC	?hex@?$_Iosb@H@std@@2W4_Fmtflags@12@B		; std::_Iosb<int>::hex
PUBLIC	?scientific@?$_Iosb@H@std@@2W4_Fmtflags@12@B	; std::_Iosb<int>::scientific
PUBLIC	?fixed@?$_Iosb@H@std@@2W4_Fmtflags@12@B		; std::_Iosb<int>::fixed
PUBLIC	?hexfloat@?$_Iosb@H@std@@2W4_Fmtflags@12@B	; std::_Iosb<int>::hexfloat
PUBLIC	?boolalpha@?$_Iosb@H@std@@2W4_Fmtflags@12@B	; std::_Iosb<int>::boolalpha
PUBLIC	?_Stdio@?$_Iosb@H@std@@2W4_Fmtflags@12@B	; std::_Iosb<int>::_Stdio
PUBLIC	?adjustfield@?$_Iosb@H@std@@2W4_Fmtflags@12@B	; std::_Iosb<int>::adjustfield
PUBLIC	?basefield@?$_Iosb@H@std@@2W4_Fmtflags@12@B	; std::_Iosb<int>::basefield
PUBLIC	?floatfield@?$_Iosb@H@std@@2W4_Fmtflags@12@B	; std::_Iosb<int>::floatfield
PUBLIC	?goodbit@?$_Iosb@H@std@@2W4_Iostate@12@B	; std::_Iosb<int>::goodbit
PUBLIC	?eofbit@?$_Iosb@H@std@@2W4_Iostate@12@B		; std::_Iosb<int>::eofbit
PUBLIC	?failbit@?$_Iosb@H@std@@2W4_Iostate@12@B	; std::_Iosb<int>::failbit
PUBLIC	?badbit@?$_Iosb@H@std@@2W4_Iostate@12@B		; std::_Iosb<int>::badbit
PUBLIC	?_Hardfail@?$_Iosb@H@std@@2W4_Iostate@12@B	; std::_Iosb<int>::_Hardfail
PUBLIC	?in@?$_Iosb@H@std@@2W4_Openmode@12@B		; std::_Iosb<int>::in
PUBLIC	?out@?$_Iosb@H@std@@2W4_Openmode@12@B		; std::_Iosb<int>::out
PUBLIC	?ate@?$_Iosb@H@std@@2W4_Openmode@12@B		; std::_Iosb<int>::ate
PUBLIC	?app@?$_Iosb@H@std@@2W4_Openmode@12@B		; std::_Iosb<int>::app
PUBLIC	?trunc@?$_Iosb@H@std@@2W4_Openmode@12@B		; std::_Iosb<int>::trunc
PUBLIC	?_Nocreate@?$_Iosb@H@std@@2W4_Openmode@12@B	; std::_Iosb<int>::_Nocreate
PUBLIC	?_Noreplace@?$_Iosb@H@std@@2W4_Openmode@12@B	; std::_Iosb<int>::_Noreplace
PUBLIC	?binary@?$_Iosb@H@std@@2W4_Openmode@12@B	; std::_Iosb<int>::binary
PUBLIC	?beg@?$_Iosb@H@std@@2W4_Seekdir@12@B		; std::_Iosb<int>::beg
PUBLIC	?cur@?$_Iosb@H@std@@2W4_Seekdir@12@B		; std::_Iosb<int>::cur
PUBLIC	?end@?$_Iosb@H@std@@2W4_Seekdir@12@B		; std::_Iosb<int>::end
PUBLIC	??_C@_0BF@PHHKMMFD@ios_base?3?3badbit?5set?$AA@	; `string'
PUBLIC	??_C@_0BG@FMKFHCIL@ios_base?3?3failbit?5set?$AA@ ; `string'
PUBLIC	??_C@_0BF@OOHOMBOF@ios_base?3?3eofbit?5set?$AA@	; `string'
PUBLIC	??_R0?AVfailure@ios_base@std@@@8		; std::ios_base::failure `RTTI Type Descriptor'
PUBLIC	??_R0?AVsystem_error@std@@@8			; std::system_error `RTTI Type Descriptor'
PUBLIC	__CT??_R0?AVfailure@ios_base@std@@@8??0failure@ios_base@std@@QAE@ABV012@@Z20
PUBLIC	__CT??_R0?AVsystem_error@std@@@8??0system_error@std@@QAE@ABV01@@Z20
PUBLIC	__CTA4?AVfailure@ios_base@std@@
PUBLIC	__TI4?AVfailure@ios_base@std@@
PUBLIC	??_C@_04NOJCDH@?$CF02x?$AA@			; `string'
PUBLIC	??_C@_02JDPG@rb?$AA@				; `string'
PUBLIC	?countExe@@3HA					; countExe
PUBLIC	?countDll@@3HA					; countDll
PUBLIC	??_C@_08GNJEIDEM@reports?2?$AA@			; `string'
PUBLIC	??_C@_01NOFIACDB@w?$AA@				; `string'
PUBLIC	??_C@_0M@FJFALDBN@C?3?2test?4txt?$AA@		; `string'
PUBLIC	??_C@_0O@IJAHIBEK@?$CFY?$CFm?$CFd?9?$CFH?$CFM?$CFS?$AA@ ; `string'
PUBLIC	??_C@_01JOAMLHOP@?9?$AA@			; `string'
PUBLIC	??_C@_04GEJHDGKP@?4pad?$AA@			; `string'
PUBLIC	??_C@_0M@JBPIDKPO@SystemDrive?$AA@		; `string'
PUBLIC	??_C@_0BD@EBNJBNP@?$DMREPORT?$DO?6?7?$DMIMAGES?$DO?$AA@ ; `string'
PUBLIC	??_C@_0L@IMNIGAFB@Scanning?4?4?$AA@		; `string'
PUBLIC	??_C@_0BF@JDNLNPKJ@?2Program?5Files?2Test?2?$AA@ ; `string'
PUBLIC	??_C@_0BG@DHGDNDEE@?6?7?$DM?1IMAGES?$DO?6?$DM?1REPORT?$DO?$AA@ ; `string'
PUBLIC	??_C@_07KOAEBJDG@7za?4exe?$AA@			; `string'
PUBLIC	??_C@_0BP@PKBPBLAD@?5a?5?9tzip?5reports?4zip?5?4?2reports?$AA@ ; `string'
PUBLIC	??_C@_02HHAEMJFE@?2?1?$AA@			; `string'
PUBLIC	??_C@_04IICBPGDH@s2ws?$AA@			; `string'
PUBLIC	??_C@_02KHDDNBB@?2?$CK?$AA@			; `string'
PUBLIC	??_C@_01LFCBOECM@?4?$AA@			; `string'
PUBLIC	??_C@_02DJGKEECL@?4?4?$AA@			; `string'
PUBLIC	??_C@_01KICIPPFI@?2?$AA@			; `string'
PUBLIC	??_C@_03JACLIBNI@exe?$AA@			; `string'
PUBLIC	??_C@_03JNNAEMKE@EXE?$AA@			; `string'
PUBLIC	??_C@_0O@FAPOFAGO@Filtered?5exe?5?$AA@		; `string'
PUBLIC	??_C@_0CO@JCAACMAP@?$DM?1FILE_SIZE?$DO?6?7?7?7?$DM?1PE_STATIC_FLAG@ ; `string'
PUBLIC	??_C@_0CG@GIMPMKF@?6?7?7?7?$DMPE_STATIC_FLAGS?$DO?6?7?7?7?7?$DMFILE_@ ; `string'
PUBLIC	??_C@_0BB@FNNIPIAP@?$DM?1DATE_ACCESSED?$DO?$AA@	; `string'
PUBLIC	??_C@_0BE@OIAEHKFG@?6?7?7?7?$DMDATE_ACCESSED?$DO?$AA@ ; `string'
PUBLIC	??_C@_0BB@BFPOJEPD@?$DM?1DATE_MODIFIED?$DO?$AA@	; `string'
PUBLIC	??_C@_0BE@KACCBGKK@?6?7?7?7?$DMDATE_MODIFIED?$DO?$AA@ ; `string'
PUBLIC	??_C@_0BA@EGEFBFG@?$DM?1DATE_CREATED?$DO?$AA@	; `string'
PUBLIC	??_C@_0BD@ICJDJOL@?6?7?7?7?$DMDATE_CREATED?$DO?$AA@ ; `string'
PUBLIC	??_C@_0M@MMCFOGMA@?$DM?1ISSIGNED?$DO?$AA@	; `string'
PUBLIC	??_C@_0CL@NLIMOMJO@?6?7?7?7?$DMEXE_TYPE?$DOEXE?$DM?1EXE_TYPE?$DO?6?7?7?7@ ; `string'
PUBLIC	??_C@_06CMNKDHNA@?$DM?1MD5?$DO?$AA@		; `string'
PUBLIC	??_C@_09IJOLEHKB@?6?7?7?7?$DMMD5?$DO?$AA@	; `string'
PUBLIC	??_C@_07GDHEAJCP@?$DM?1PATH?$DO?$AA@		; `string'
PUBLIC	??_C@_0L@EENDHJPF@?6?7?7?7?$DMPATH?$DO?$AA@	; `string'
PUBLIC	??_C@_0L@MCJCKBAH@?6?7?7?$DMIMAGE?$DO?$AA@	; `string'
PUBLIC	??_C@_03OCHKFGFI@dll?$AA@			; `string'
PUBLIC	??_C@_03OPIBJLCE@DLL?$AA@			; `string'
PUBLIC	??_C@_0O@LNDEICJJ@Filtered?5dll?5?$AA@		; `string'
PUBLIC	??_C@_0CL@JANNNNF@?6?7?7?7?$DMEXE_TYPE?$DODLL?$DM?1EXE_TYPE?$DO?6?7?7?7@ ; `string'
PUBLIC	??_C@_02EAOCLKAK@ld?$AA@			; `string'
PUBLIC	??_C@_02BDDLJJBK@lu?$AA@			; `string'
PUBLIC	??_C@_02HIKPPMOK@Ld?$AA@			; `string'
PUBLIC	??_C@_02CLHGNPPK@Lu?$AA@			; `string'
PUBLIC	??_C@_02BBAHNLBA@?$CFp?$AA@			; `string'
PUBLIC	??_C@_0BA@JFNIOLAK@string?5too?5long?$AA@	; `string'
PUBLIC	??_C@_0BI@CFPLBAOH@invalid?5string?5position?$AA@ ; `string'
PUBLIC	??_C@_01DDCIFGEA@E?$AA@				; `string'
PUBLIC	??_C@_01KGKMHCOC@e?$AA@				; `string'
PUBLIC	?npos@?$basic_string@DU?$char_traits@D@std@@V?$allocator@D@2@@std@@2IB ; std::basic_string<char,std::char_traits<char>,std::allocator<char> >::npos
PUBLIC	??_C@_08EPJLHIJG@bad?5cast?$AA@			; `string'
PUBLIC	??_R0?AVbad_cast@std@@@8			; std::bad_cast `RTTI Type Descriptor'
PUBLIC	__CT??_R0?AVbad_cast@std@@@8??0bad_cast@std@@QAE@ABV01@@Z12
PUBLIC	__CTA2?AVbad_cast@std@@
PUBLIC	__TI2?AVbad_cast@std@@
PUBLIC	?_Stz@?$fpos@H@std@@0HB				; std::fpos<int>::_Stz
PUBLIC	??_R0?AVbad_alloc@std@@@8			; std::bad_alloc `RTTI Type Descriptor'
PUBLIC	__CT??_R0?AVbad_alloc@std@@@8??0bad_alloc@std@@QAE@ABV01@@Z12
PUBLIC	__CTA2?AVbad_alloc@std@@
PUBLIC	__TI2?AVbad_alloc@std@@
PUBLIC	?_Psave@?$_Facetptr@V?$ctype@D@std@@@std@@2PBVfacet@locale@2@B ; std::_Facetptr<std::ctype<char> >::_Psave
PUBLIC	?_Psave@?$_Facetptr@V?$ctype@_W@std@@@std@@2PBVfacet@locale@2@B ; std::_Facetptr<std::ctype<wchar_t> >::_Psave
PUBLIC	?_Psave@?$_Facetptr@V?$num_put@DV?$ostreambuf_iterator@DU?$char_traits@D@std@@@std@@@std@@@std@@2PBVfacet@locale@2@B ; std::_Facetptr<std::num_put<char,std::ostreambuf_iterator<char,std::char_traits<char> > > >::_Psave
PUBLIC	?_Psave@?$_Facetptr@V?$codecvt@DDH@std@@@std@@2PBVfacet@locale@2@B ; std::_Facetptr<std::codecvt<char,char,int> >::_Psave
PUBLIC	?_Psave@?$_Facetptr@V?$numpunct@D@std@@@std@@2PBVfacet@locale@2@B ; std::_Facetptr<std::numpunct<char> >::_Psave
PUBLIC	??_7bad_alloc@std@@6B@				; std::bad_alloc::`vftable'
PUBLIC	??_7ios_base@std@@6B@				; std::ios_base::`vftable'
PUBLIC	??_7?$basic_ios@DU?$char_traits@D@std@@@std@@6B@ ; std::basic_ios<char,std::char_traits<char> >::`vftable'
PUBLIC	??_7?$basic_streambuf@DU?$char_traits@D@std@@@std@@6B@ ; std::basic_streambuf<char,std::char_traits<char> >::`vftable'
PUBLIC	??_7?$basic_ostream@DU?$char_traits@D@std@@@std@@6B@ ; std::basic_ostream<char,std::char_traits<char> >::`vftable'
PUBLIC	??_8?$basic_ostream@DU?$char_traits@D@std@@@std@@7B@ ; std::basic_ostream<char,std::char_traits<char> >::`vbtable'
PUBLIC	??_7?$basic_filebuf@DU?$char_traits@D@std@@@std@@6B@ ; std::basic_filebuf<char,std::char_traits<char> >::`vftable'
PUBLIC	??_7?$basic_ofstream@DU?$char_traits@D@std@@@std@@6B@ ; std::basic_ofstream<char,std::char_traits<char> >::`vftable'
PUBLIC	??_8?$basic_ofstream@DU?$char_traits@D@std@@@std@@7B@ ; std::basic_ofstream<char,std::char_traits<char> >::`vbtable'
PUBLIC	??_7runtime_error@std@@6B@			; std::runtime_error::`vftable'
PUBLIC	??_7facet@locale@std@@6B@			; std::locale::facet::`vftable'
PUBLIC	??_7codecvt_base@std@@6B@			; std::codecvt_base::`vftable'
PUBLIC	??_7ctype_base@std@@6B@				; std::ctype_base::`vftable'
PUBLIC	??_7?$ctype@D@std@@6B@				; std::ctype<char>::`vftable'
PUBLIC	??_7?$ctype@_W@std@@6B@				; std::ctype<wchar_t>::`vftable'
PUBLIC	??_7system_error@std@@6B@			; std::system_error::`vftable'
PUBLIC	??_7failure@ios_base@std@@6B@			; std::ios_base::failure::`vftable'
PUBLIC	??_7?$num_put@DV?$ostreambuf_iterator@DU?$char_traits@D@std@@@std@@@std@@6B@ ; std::num_put<char,std::ostreambuf_iterator<char,std::char_traits<char> > >::`vftable'
PUBLIC	??_7?$codecvt@DDH@std@@6B@			; std::codecvt<char,char,int>::`vftable'
PUBLIC	??_7?$numpunct@D@std@@6B@			; std::numpunct<char>::`vftable'
EXTRN	@__security_check_cookie@4:PROC
EXTRN	__imp__WaitForSingleObject@8:PROC
EXTRN	__imp__CreateDirectoryA@8:PROC
EXTRN	__imp__UuidCreateSequential@4:PROC
EXTRN	__imp__UuidToStringA@8:PROC
EXTRN	__imp__ShellExecuteExA@4:PROC
EXTRN	_getenv:PROC
EXTRN	?cin@std@@3V?$basic_istream@DU?$char_traits@D@std@@@1@A:BYTE ; std::cin
EXTRN	_clock:PROC
EXTRN	_strftime:PROC
EXTRN	__localtime64:PROC
EXTRN	__time64:PROC
EXTRN	?_Fiopen@std@@YAPAU_iobuf@@PBDHH@Z:PROC		; std::_Fiopen
EXTRN	__imp__WinVerifyTrust@12:PROC
EXTRN	__imp__GetModuleFileNameA@12:PROC
EXTRN	?wcout@std@@3V?$basic_ostream@_WU?$char_traits@_W@std@@@1@A:BYTE ; std::wcout
EXTRN	?id@?$ctype@_W@std@@2V0locale@2@A:DWORD		; std::ctype<wchar_t>::id
EXTRN	__Getwctype:PROC
EXTRN	__Getwctypes:PROC
EXTRN	__Towlower:PROC
EXTRN	__Towupper:PROC
EXTRN	__Mbrtowc:PROC
EXTRN	__Wcrtomb:PROC
EXTRN	??_E?$ctype@_W@std@@MAEPAXI@Z:PROC		; std::ctype<wchar_t>::`vector deleting destructor'
EXTRN	__imp__lstrlenA@4:PROC
EXTRN	__imp__MultiByteToWideChar@24:PROC
EXTRN	__imp__WideCharToMultiByte@32:PROC
EXTRN	_malloc:PROC
EXTRN	__imp__SysAllocStringLen@8:PROC
EXTRN	__imp__GetLastError@0:PROC
EXTRN	__imp__FindClose@4:PROC
EXTRN	__imp__FileTimeToSystemTime@8:PROC
EXTRN	__imp__FindFirstFileA@8:PROC
EXTRN	__imp__FindNextFileA@8:PROC
EXTRN	__imp__SHGetFileInfoA@20:PROC
EXTRN	_strcspn:PROC
EXTRN	_sprintf_s:PROC
EXTRN	_memmove_s:PROC
EXTRN	_memchr:PROC
EXTRN	__Getcvt:PROC
EXTRN	_localeconv:PROC
EXTRN	??_U@YAPAXI@Z:PROC				; operator new[]
EXTRN	??_E?$numpunct@D@std@@MAEPAXI@Z:PROC		; std::numpunct<char>::`vector deleting destructor'
EXTRN	??_E?$num_put@DV?$ostreambuf_iterator@DU?$char_traits@D@std@@@std@@@std@@MAEPAXI@Z:PROC ; std::num_put<char,std::ostreambuf_iterator<char,std::char_traits<char> > >::`vector deleting destructor'
EXTRN	?cout@std@@3V?$basic_ostream@DU?$char_traits@D@std@@@1@A:BYTE ; std::cout
EXTRN	_fopen:PROC
EXTRN	_fread:PROC
EXTRN	_sprintf:PROC
EXTRN	?uncaught_exception@std@@YA_NXZ:PROC		; std::uncaught_exception
EXTRN	_atexit:PROC
EXTRN	?_Addstd@ios_base@std@@SAXPAV12@@Z:PROC		; std::ios_base::_Addstd
EXTRN	?iostream_category@std@@YAABVerror_category@1@XZ:PROC ; std::iostream_category
EXTRN	??_Efailure@ios_base@std@@UAEPAXI@Z:PROC	; std::ios_base::failure::`vector deleting destructor'
EXTRN	??_Esystem_error@std@@UAEPAXI@Z:PROC		; std::system_error::`vector deleting destructor'
EXTRN	?id@?$ctype@D@std@@2V0locale@2@A:DWORD		; std::ctype<char>::id
EXTRN	__Getctype:PROC
EXTRN	__Tolower:PROC
EXTRN	__Toupper:PROC
EXTRN	??_Ectype_base@std@@UAEPAXI@Z:PROC		; std::ctype_base::`vector deleting destructor'
EXTRN	??_V@YAXPAX@Z:PROC				; operator delete[]
EXTRN	??_E?$ctype@D@std@@MAEPAXI@Z:PROC		; std::ctype<char>::`vector deleting destructor'
EXTRN	??0_Mutex@std@@QAE@XZ:PROC			; std::_Mutex::_Mutex
EXTRN	?_Init@locale@std@@CAPAV_Locimp@12@XZ:PROC	; std::locale::_Init
EXTRN	?_Ios_base_dtor@ios_base@std@@CAXPAV12@@Z:PROC	; std::ios_base::_Ios_base_dtor
EXTRN	??_Eios_base@std@@UAEPAXI@Z:PROC		; std::ios_base::`vector deleting destructor'
EXTRN	??_E?$basic_ios@DU?$char_traits@D@std@@@std@@UAEPAXI@Z:PROC ; std::basic_ios<char,std::char_traits<char> >::`vector deleting destructor'
EXTRN	??_E?$basic_ostream@DU?$char_traits@D@std@@@std@@UAEPAXI@Z:PROC ; std::basic_ostream<char,std::char_traits<char> >::`vector deleting destructor'
EXTRN	??1_Mutex@std@@QAE@XZ:PROC			; std::_Mutex::~_Mutex
EXTRN	?_Lock@_Mutex@std@@QAEXXZ:PROC			; std::_Mutex::_Lock
EXTRN	?_Unlock@_Mutex@std@@QAEXXZ:PROC		; std::_Mutex::_Unlock
EXTRN	??_E?$basic_streambuf@DU?$char_traits@D@std@@@std@@UAEPAXI@Z:PROC ; std::basic_streambuf<char,std::char_traits<char> >::`vector deleting destructor'
EXTRN	_fclose:PROC
EXTRN	__lock_file:PROC
EXTRN	__unlock_file:PROC
EXTRN	_fputc:PROC
EXTRN	_memcpy_s:PROC
EXTRN	_ungetc:PROC
EXTRN	_memmove:PROC
EXTRN	?_Xout_of_range@std@@YAXPBD@Z:PROC		; std::_Xout_of_range
EXTRN	_fgetc:PROC
EXTRN	_fgetpos:PROC
EXTRN	_fsetpos:PROC
EXTRN	__fseeki64:PROC
EXTRN	?_BADOFF@std@@3_JB:QWORD			; std::_BADOFF
EXTRN	_fwrite:PROC
EXTRN	??_Ebad_alloc@std@@UAEPAXI@Z:PROC		; std::bad_alloc::`vector deleting destructor'
EXTRN	?_Xlength_error@std@@YAXPBD@Z:PROC		; std::_Xlength_error
EXTRN	_setvbuf:PROC
EXTRN	_fflush:PROC
EXTRN	??0bad_cast@std@@QAE@PBD@Z:PROC			; std::bad_cast::bad_cast
EXTRN	?_Id_cnt@id@locale@std@@0HA:DWORD		; std::locale::id::_Id_cnt
EXTRN	?_Facet_Register@facet@locale@std@@CAXPAV123@@Z:PROC ; std::locale::facet::_Facet_Register
EXTRN	?_Getgloballocale@locale@std@@CAPAV_Locimp@12@XZ:PROC ; std::locale::_Getgloballocale
EXTRN	??2@YAPAXI@Z:PROC				; operator new
EXTRN	??0_Lockit@std@@QAE@H@Z:PROC			; std::_Lockit::_Lockit
EXTRN	??0exception@std@@QAE@ABQBD@Z:PROC		; std::exception::exception
EXTRN	?_Locinfo_ctor@_Locinfo@std@@SAXPAV12@PBD@Z:PROC ; std::_Locinfo::_Locinfo_ctor
EXTRN	?what@exception@std@@UBEPBDXZ:PROC		; std::exception::what
EXTRN	??1exception@std@@UAE@XZ:PROC			; std::exception::~exception
EXTRN	??_Eruntime_error@std@@UAEPAXI@Z:PROC		; std::runtime_error::`vector deleting destructor'
EXTRN	??1_Lockit@std@@QAE@XZ:PROC			; std::_Lockit::~_Lockit
EXTRN	?_Locinfo_dtor@_Locinfo@std@@SAXPAV12@@Z:PROC	; std::_Locinfo::_Locinfo_dtor
EXTRN	_free:PROC
EXTRN	??_Efacet@locale@std@@UAEPAXI@Z:PROC		; std::locale::facet::`vector deleting destructor'
EXTRN	??_Ecodecvt_base@std@@UAEPAXI@Z:PROC		; std::codecvt_base::`vector deleting destructor'
EXTRN	??_E?$codecvt@DDH@std@@MAEPAXI@Z:PROC		; std::codecvt<char,char,int>::`vector deleting destructor'
EXTRN	??1bad_cast@std@@UAE@XZ:PROC			; std::bad_cast::~bad_cast
EXTRN	??0exception@std@@QAE@ABV01@@Z:PROC		; std::exception::exception
EXTRN	??0bad_cast@std@@QAE@ABV01@@Z:PROC		; std::bad_cast::bad_cast
EXTRN	??_E?$basic_filebuf@DU?$char_traits@D@std@@@std@@UAEPAXI@Z:PROC ; std::basic_filebuf<char,std::char_traits<char> >::`vector deleting destructor'
EXTRN	??3@YAXPAX@Z:PROC				; operator delete
EXTRN	??_E?$basic_ofstream@DU?$char_traits@D@std@@@std@@UAEPAXI@Z:PROC ; std::basic_ofstream<char,std::char_traits<char> >::`vector deleting destructor'
EXTRN	??_7type_info@@6B@:QWORD			; type_info::`vftable'
?countExe@@3HA DD 01H DUP (?)				; countExe
?countDll@@3HA DD 01H DUP (?)				; countDll
;	COMDAT ?_Psave@?$_Facetptr@V?$ctype@D@std@@@std@@2PBVfacet@locale@2@B
_BSS	SEGMENT
?_Psave@?$_Facetptr@V?$ctype@D@std@@@std@@2PBVfacet@locale@2@B DD 01H DUP (?) ; std::_Facetptr<std::ctype<char> >::_Psave
_BSS	ENDS
;	COMDAT ?_Psave@?$_Facetptr@V?$ctype@_W@std@@@std@@2PBVfacet@locale@2@B
_BSS	SEGMENT
?_Psave@?$_Facetptr@V?$ctype@_W@std@@@std@@2PBVfacet@locale@2@B DD 01H DUP (?) ; std::_Facetptr<std::ctype<wchar_t> >::_Psave
_BSS	ENDS
;	COMDAT ?_Psave@?$_Facetptr@V?$num_put@DV?$ostreambuf_iterator@DU?$char_traits@D@std@@@std@@@std@@@std@@2PBVfacet@locale@2@B
_BSS	SEGMENT
?_Psave@?$_Facetptr@V?$num_put@DV?$ostreambuf_iterator@DU?$char_traits@D@std@@@std@@@std@@@std@@2PBVfacet@locale@2@B DD 01H DUP (?) ; std::_Facetptr<std::num_put<char,std::ostreambuf_iterator<char,std::char_traits<char> > > >::_Psave
_BSS	ENDS
;	COMDAT ?_Psave@?$_Facetptr@V?$codecvt@DDH@std@@@std@@2PBVfacet@locale@2@B
_BSS	SEGMENT
?_Psave@?$_Facetptr@V?$codecvt@DDH@std@@@std@@2PBVfacet@locale@2@B DD 01H DUP (?) ; std::_Facetptr<std::codecvt<char,char,int> >::_Psave
_BSS	ENDS
;	COMDAT ?_Psave@?$_Facetptr@V?$numpunct@D@std@@@std@@2PBVfacet@locale@2@B
_BSS	SEGMENT
?_Psave@?$_Facetptr@V?$numpunct@D@std@@@std@@2PBVfacet@locale@2@B DD 01H DUP (?) ; std::_Facetptr<std::numpunct<char> >::_Psave
_BSS	ENDS
;	COMDAT ??_7?$numpunct@D@std@@6B@
CONST	SEGMENT
??_7?$numpunct@D@std@@6B@ DD FLAT:??_R4?$numpunct@D@std@@6B@ ; std::numpunct<char>::`vftable'
	DD	FLAT:??_E?$numpunct@D@std@@MAEPAXI@Z
	DD	FLAT:?do_decimal_point@?$numpunct@D@std@@MBEDXZ
	DD	FLAT:?do_thousands_sep@?$numpunct@D@std@@MBEDXZ
	DD	FLAT:?do_grouping@?$numpunct@D@std@@MBE?AV?$basic_string@DU?$char_traits@D@std@@V?$allocator@D@2@@2@XZ
	DD	FLAT:?do_falsename@?$numpunct@D@std@@MBE?AV?$basic_string@DU?$char_traits@D@std@@V?$allocator@D@2@@2@XZ
	DD	FLAT:?do_truename@?$numpunct@D@std@@MBE?AV?$basic_string@DU?$char_traits@D@std@@V?$allocator@D@2@@2@XZ
CONST	ENDS
;	COMDAT ??_R4?$numpunct@D@std@@6B@
rdata$r	SEGMENT
??_R4?$numpunct@D@std@@6B@ DD 00H			; std::numpunct<char>::`RTTI Complete Object Locator'
	DD	00H
	DD	00H
	DD	FLAT:??_R0?AV?$numpunct@D@std@@@8
	DD	FLAT:??_R3?$numpunct@D@std@@8
rdata$r	ENDS
;	COMDAT ??_R3?$numpunct@D@std@@8
rdata$r	SEGMENT
??_R3?$numpunct@D@std@@8 DD 00H				; std::numpunct<char>::`RTTI Class Hierarchy Descriptor'
	DD	00H
	DD	02H
	DD	FLAT:??_R2?$numpunct@D@std@@8
rdata$r	ENDS
;	COMDAT ??_R2?$numpunct@D@std@@8
rdata$r	SEGMENT
??_R2?$numpunct@D@std@@8 DD FLAT:??_R1A@?0A@EA@?$numpunct@D@std@@8 ; std::numpunct<char>::`RTTI Base Class Array'
	DD	FLAT:??_R1A@?0A@EA@facet@locale@std@@8
rdata$r	ENDS
;	COMDAT ??_R1A@?0A@EA@?$numpunct@D@std@@8
rdata$r	SEGMENT
??_R1A@?0A@EA@?$numpunct@D@std@@8 DD FLAT:??_R0?AV?$numpunct@D@std@@@8 ; std::numpunct<char>::`RTTI Base Class Descriptor at (0,-1,0,64)'
	DD	01H
	DD	00H
	DD	0ffffffffH
	DD	00H
	DD	040H
	DD	FLAT:??_R3?$numpunct@D@std@@8
rdata$r	ENDS
;	COMDAT ??_R0?AV?$numpunct@D@std@@@8
_DATA	SEGMENT
??_R0?AV?$numpunct@D@std@@@8 DD FLAT:??_7type_info@@6B@	; std::numpunct<char> `RTTI Type Descriptor'
	DD	00H
	DB	'.?AV?$numpunct@D@std@@', 00H
_DATA	ENDS
;	COMDAT ??_7?$codecvt@DDH@std@@6B@
CONST	SEGMENT
??_7?$codecvt@DDH@std@@6B@ DD FLAT:??_R4?$codecvt@DDH@std@@6B@ ; std::codecvt<char,char,int>::`vftable'
	DD	FLAT:??_E?$codecvt@DDH@std@@MAEPAXI@Z
	DD	FLAT:?do_always_noconv@codecvt_base@std@@MBE_NXZ
	DD	FLAT:?do_max_length@codecvt_base@std@@MBEHXZ
	DD	FLAT:?do_encoding@codecvt_base@std@@MBEHXZ
	DD	FLAT:?do_in@?$codecvt@DDH@std@@MBEHAAHPBD1AAPBDPAD3AAPAD@Z
	DD	FLAT:?do_out@?$codecvt@DDH@std@@MBEHAAHPBD1AAPBDPAD3AAPAD@Z
	DD	FLAT:?do_unshift@?$codecvt@DDH@std@@MBEHAAHPAD1AAPAD@Z
	DD	FLAT:?do_length@?$codecvt@DDH@std@@MBEHABHPBD1I@Z
CONST	ENDS
;	COMDAT ??_R4?$codecvt@DDH@std@@6B@
rdata$r	SEGMENT
??_R4?$codecvt@DDH@std@@6B@ DD 00H			; std::codecvt<char,char,int>::`RTTI Complete Object Locator'
	DD	00H
	DD	00H
	DD	FLAT:??_R0?AV?$codecvt@DDH@std@@@8
	DD	FLAT:??_R3?$codecvt@DDH@std@@8
rdata$r	ENDS
;	COMDAT ??_R3?$codecvt@DDH@std@@8
rdata$r	SEGMENT
??_R3?$codecvt@DDH@std@@8 DD 00H			; std::codecvt<char,char,int>::`RTTI Class Hierarchy Descriptor'
	DD	00H
	DD	03H
	DD	FLAT:??_R2?$codecvt@DDH@std@@8
rdata$r	ENDS
;	COMDAT ??_R2?$codecvt@DDH@std@@8
rdata$r	SEGMENT
??_R2?$codecvt@DDH@std@@8 DD FLAT:??_R1A@?0A@EA@?$codecvt@DDH@std@@8 ; std::codecvt<char,char,int>::`RTTI Base Class Array'
	DD	FLAT:??_R1A@?0A@EA@codecvt_base@std@@8
	DD	FLAT:??_R1A@?0A@EA@facet@locale@std@@8
rdata$r	ENDS
;	COMDAT ??_R1A@?0A@EA@?$codecvt@DDH@std@@8
rdata$r	SEGMENT
??_R1A@?0A@EA@?$codecvt@DDH@std@@8 DD FLAT:??_R0?AV?$codecvt@DDH@std@@@8 ; std::codecvt<char,char,int>::`RTTI Base Class Descriptor at (0,-1,0,64)'
	DD	02H
	DD	00H
	DD	0ffffffffH
	DD	00H
	DD	040H
	DD	FLAT:??_R3?$codecvt@DDH@std@@8
rdata$r	ENDS
;	COMDAT ??_R0?AV?$codecvt@DDH@std@@@8
_DATA	SEGMENT
??_R0?AV?$codecvt@DDH@std@@@8 DD FLAT:??_7type_info@@6B@ ; std::codecvt<char,char,int> `RTTI Type Descriptor'
	DD	00H
	DB	'.?AV?$codecvt@DDH@std@@', 00H
_DATA	ENDS
;	COMDAT ??_7?$num_put@DV?$ostreambuf_iterator@DU?$char_traits@D@std@@@std@@@std@@6B@
CONST	SEGMENT
??_7?$num_put@DV?$ostreambuf_iterator@DU?$char_traits@D@std@@@std@@@std@@6B@ DD FLAT:??_R4?$num_put@DV?$ostreambuf_iterator@DU?$char_traits@D@std@@@std@@@std@@6B@ ; std::num_put<char,std::ostreambuf_iterator<char,std::char_traits<char> > >::`vftable'
	DD	FLAT:??_E?$num_put@DV?$ostreambuf_iterator@DU?$char_traits@D@std@@@std@@@std@@MAEPAXI@Z
	DD	FLAT:?do_put@?$num_put@DV?$ostreambuf_iterator@DU?$char_traits@D@std@@@std@@@std@@MBE?AV?$ostreambuf_iterator@DU?$char_traits@D@std@@@2@V32@AAVios_base@2@DPBX@Z
	DD	FLAT:?do_put@?$num_put@DV?$ostreambuf_iterator@DU?$char_traits@D@std@@@std@@@std@@MBE?AV?$ostreambuf_iterator@DU?$char_traits@D@std@@@2@V32@AAVios_base@2@DO@Z
	DD	FLAT:?do_put@?$num_put@DV?$ostreambuf_iterator@DU?$char_traits@D@std@@@std@@@std@@MBE?AV?$ostreambuf_iterator@DU?$char_traits@D@std@@@2@V32@AAVios_base@2@DN@Z
	DD	FLAT:?do_put@?$num_put@DV?$ostreambuf_iterator@DU?$char_traits@D@std@@@std@@@std@@MBE?AV?$ostreambuf_iterator@DU?$char_traits@D@std@@@2@V32@AAVios_base@2@D_K@Z
	DD	FLAT:?do_put@?$num_put@DV?$ostreambuf_iterator@DU?$char_traits@D@std@@@std@@@std@@MBE?AV?$ostreambuf_iterator@DU?$char_traits@D@std@@@2@V32@AAVios_base@2@D_J@Z
	DD	FLAT:?do_put@?$num_put@DV?$ostreambuf_iterator@DU?$char_traits@D@std@@@std@@@std@@MBE?AV?$ostreambuf_iterator@DU?$char_traits@D@std@@@2@V32@AAVios_base@2@DK@Z
	DD	FLAT:?do_put@?$num_put@DV?$ostreambuf_iterator@DU?$char_traits@D@std@@@std@@@std@@MBE?AV?$ostreambuf_iterator@DU?$char_traits@D@std@@@2@V32@AAVios_base@2@DJ@Z
	DD	FLAT:?do_put@?$num_put@DV?$ostreambuf_iterator@DU?$char_traits@D@std@@@std@@@std@@MBE?AV?$ostreambuf_iterator@DU?$char_traits@D@std@@@2@V32@AAVios_base@2@D_N@Z
CONST	ENDS
;	COMDAT ??_R4?$num_put@DV?$ostreambuf_iterator@DU?$char_traits@D@std@@@std@@@std@@6B@
rdata$r	SEGMENT
??_R4?$num_put@DV?$ostreambuf_iterator@DU?$char_traits@D@std@@@std@@@std@@6B@ DD 00H ; std::num_put<char,std::ostreambuf_iterator<char,std::char_traits<char> > >::`RTTI Complete Object Locator'
	DD	00H
	DD	00H
	DD	FLAT:??_R0?AV?$num_put@DV?$ostreambuf_iterator@DU?$char_traits@D@std@@@std@@@std@@@8
	DD	FLAT:??_R3?$num_put@DV?$ostreambuf_iterator@DU?$char_traits@D@std@@@std@@@std@@8
rdata$r	ENDS
;	COMDAT ??_R3?$num_put@DV?$ostreambuf_iterator@DU?$char_traits@D@std@@@std@@@std@@8
rdata$r	SEGMENT
??_R3?$num_put@DV?$ostreambuf_iterator@DU?$char_traits@D@std@@@std@@@std@@8 DD 00H ; std::num_put<char,std::ostreambuf_iterator<char,std::char_traits<char> > >::`RTTI Class Hierarchy Descriptor'
	DD	00H
	DD	02H
	DD	FLAT:??_R2?$num_put@DV?$ostreambuf_iterator@DU?$char_traits@D@std@@@std@@@std@@8
rdata$r	ENDS
;	COMDAT ??_R2?$num_put@DV?$ostreambuf_iterator@DU?$char_traits@D@std@@@std@@@std@@8
rdata$r	SEGMENT
??_R2?$num_put@DV?$ostreambuf_iterator@DU?$char_traits@D@std@@@std@@@std@@8 DD FLAT:??_R1A@?0A@EA@?$num_put@DV?$ostreambuf_iterator@DU?$char_traits@D@std@@@std@@@std@@8 ; std::num_put<char,std::ostreambuf_iterator<char,std::char_traits<char> > >::`RTTI Base Class Array'
	DD	FLAT:??_R1A@?0A@EA@facet@locale@std@@8
rdata$r	ENDS
;	COMDAT ??_R1A@?0A@EA@?$num_put@DV?$ostreambuf_iterator@DU?$char_traits@D@std@@@std@@@std@@8
rdata$r	SEGMENT
??_R1A@?0A@EA@?$num_put@DV?$ostreambuf_iterator@DU?$char_traits@D@std@@@std@@@std@@8 DD FLAT:??_R0?AV?$num_put@DV?$ostreambuf_iterator@DU?$char_traits@D@std@@@std@@@std@@@8 ; std::num_put<char,std::ostreambuf_iterator<char,std::char_traits<char> > >::`RTTI Base Class Descriptor at (0,-1,0,64)'
	DD	01H
	DD	00H
	DD	0ffffffffH
	DD	00H
	DD	040H
	DD	FLAT:??_R3?$num_put@DV?$ostreambuf_iterator@DU?$char_traits@D@std@@@std@@@std@@8
rdata$r	ENDS
;	COMDAT ??_R0?AV?$num_put@DV?$ostreambuf_iterator@DU?$char_traits@D@std@@@std@@@std@@@8
_DATA	SEGMENT
??_R0?AV?$num_put@DV?$ostreambuf_iterator@DU?$char_traits@D@std@@@std@@@std@@@8 DD FLAT:??_7type_info@@6B@ ; std::num_put<char,std::ostreambuf_iterator<char,std::char_traits<char> > > `RTTI Type Descriptor'
	DD	00H
	DB	'.?AV?$num_put@DV?$ostreambuf_iterator@DU?$char_traits@D@'
	DB	'std@@@std@@@std@@', 00H
_DATA	ENDS
;	COMDAT ??_7failure@ios_base@std@@6B@
CONST	SEGMENT
??_7failure@ios_base@std@@6B@ DD FLAT:??_R4failure@ios_base@std@@6B@ ; std::ios_base::failure::`vftable'
	DD	FLAT:??_Efailure@ios_base@std@@UAEPAXI@Z
	DD	FLAT:?what@exception@std@@UBEPBDXZ
CONST	ENDS
;	COMDAT ??_R4failure@ios_base@std@@6B@
rdata$r	SEGMENT
??_R4failure@ios_base@std@@6B@ DD 00H			; std::ios_base::failure::`RTTI Complete Object Locator'
	DD	00H
	DD	00H
	DD	FLAT:??_R0?AVfailure@ios_base@std@@@8
	DD	FLAT:??_R3failure@ios_base@std@@8
rdata$r	ENDS
;	COMDAT ??_R3failure@ios_base@std@@8
rdata$r	SEGMENT
??_R3failure@ios_base@std@@8 DD 00H			; std::ios_base::failure::`RTTI Class Hierarchy Descriptor'
	DD	00H
	DD	04H
	DD	FLAT:??_R2failure@ios_base@std@@8
rdata$r	ENDS
;	COMDAT ??_R2failure@ios_base@std@@8
rdata$r	SEGMENT
??_R2failure@ios_base@std@@8 DD FLAT:??_R1A@?0A@EA@failure@ios_base@std@@8 ; std::ios_base::failure::`RTTI Base Class Array'
	DD	FLAT:??_R1A@?0A@EA@system_error@std@@8
	DD	FLAT:??_R1A@?0A@EA@runtime_error@std@@8
	DD	FLAT:??_R1A@?0A@EA@exception@std@@8
rdata$r	ENDS
;	COMDAT ??_R1A@?0A@EA@failure@ios_base@std@@8
rdata$r	SEGMENT
??_R1A@?0A@EA@failure@ios_base@std@@8 DD FLAT:??_R0?AVfailure@ios_base@std@@@8 ; std::ios_base::failure::`RTTI Base Class Descriptor at (0,-1,0,64)'
	DD	03H
	DD	00H
	DD	0ffffffffH
	DD	00H
	DD	040H
	DD	FLAT:??_R3failure@ios_base@std@@8
rdata$r	ENDS
;	COMDAT ??_7system_error@std@@6B@
CONST	SEGMENT
??_7system_error@std@@6B@ DD FLAT:??_R4system_error@std@@6B@ ; std::system_error::`vftable'
	DD	FLAT:??_Esystem_error@std@@UAEPAXI@Z
	DD	FLAT:?what@exception@std@@UBEPBDXZ
CONST	ENDS
;	COMDAT ??_R4system_error@std@@6B@
rdata$r	SEGMENT
??_R4system_error@std@@6B@ DD 00H			; std::system_error::`RTTI Complete Object Locator'
	DD	00H
	DD	00H
	DD	FLAT:??_R0?AVsystem_error@std@@@8
	DD	FLAT:??_R3system_error@std@@8
rdata$r	ENDS
;	COMDAT ??_R3system_error@std@@8
rdata$r	SEGMENT
??_R3system_error@std@@8 DD 00H				; std::system_error::`RTTI Class Hierarchy Descriptor'
	DD	00H
	DD	03H
	DD	FLAT:??_R2system_error@std@@8
rdata$r	ENDS
;	COMDAT ??_R2system_error@std@@8
rdata$r	SEGMENT
??_R2system_error@std@@8 DD FLAT:??_R1A@?0A@EA@system_error@std@@8 ; std::system_error::`RTTI Base Class Array'
	DD	FLAT:??_R1A@?0A@EA@runtime_error@std@@8
	DD	FLAT:??_R1A@?0A@EA@exception@std@@8
rdata$r	ENDS
;	COMDAT ??_R1A@?0A@EA@system_error@std@@8
rdata$r	SEGMENT
??_R1A@?0A@EA@system_error@std@@8 DD FLAT:??_R0?AVsystem_error@std@@@8 ; std::system_error::`RTTI Base Class Descriptor at (0,-1,0,64)'
	DD	02H
	DD	00H
	DD	0ffffffffH
	DD	00H
	DD	040H
	DD	FLAT:??_R3system_error@std@@8
rdata$r	ENDS
;	COMDAT ??_7?$ctype@_W@std@@6B@
CONST	SEGMENT
??_7?$ctype@_W@std@@6B@ DD FLAT:??_R4?$ctype@_W@std@@6B@ ; std::ctype<wchar_t>::`vftable'
	DD	FLAT:??_E?$ctype@_W@std@@MAEPAXI@Z
	DD	FLAT:?do_is@?$ctype@_W@std@@MBEPB_WPB_W0PAF@Z
	DD	FLAT:?do_is@?$ctype@_W@std@@MBE_NF_W@Z
	DD	FLAT:?do_scan_is@?$ctype@_W@std@@MBEPB_WFPB_W0@Z
	DD	FLAT:?do_scan_not@?$ctype@_W@std@@MBEPB_WFPB_W0@Z
	DD	FLAT:?do_tolower@?$ctype@_W@std@@MBEPB_WPA_WPB_W@Z
	DD	FLAT:?do_tolower@?$ctype@_W@std@@MBE_W_W@Z
	DD	FLAT:?do_toupper@?$ctype@_W@std@@MBEPB_WPA_WPB_W@Z
	DD	FLAT:?do_toupper@?$ctype@_W@std@@MBE_W_W@Z
	DD	FLAT:?do_widen@?$ctype@_W@std@@MBEPBDPBD0PA_W@Z
	DD	FLAT:?do_widen@?$ctype@_W@std@@MBE_WD@Z
	DD	FLAT:?do_narrow@?$ctype@_W@std@@MBEPB_WPB_W0DPAD@Z
	DD	FLAT:?do_narrow@?$ctype@_W@std@@MBED_WD@Z
CONST	ENDS
;	COMDAT ??_R4?$ctype@_W@std@@6B@
rdata$r	SEGMENT
??_R4?$ctype@_W@std@@6B@ DD 00H				; std::ctype<wchar_t>::`RTTI Complete Object Locator'
	DD	00H
	DD	00H
	DD	FLAT:??_R0?AV?$ctype@_W@std@@@8
	DD	FLAT:??_R3?$ctype@_W@std@@8
rdata$r	ENDS
;	COMDAT ??_R3?$ctype@_W@std@@8
rdata$r	SEGMENT
??_R3?$ctype@_W@std@@8 DD 00H				; std::ctype<wchar_t>::`RTTI Class Hierarchy Descriptor'
	DD	00H
	DD	03H
	DD	FLAT:??_R2?$ctype@_W@std@@8
rdata$r	ENDS
;	COMDAT ??_R2?$ctype@_W@std@@8
rdata$r	SEGMENT
??_R2?$ctype@_W@std@@8 DD FLAT:??_R1A@?0A@EA@?$ctype@_W@std@@8 ; std::ctype<wchar_t>::`RTTI Base Class Array'
	DD	FLAT:??_R1A@?0A@EA@ctype_base@std@@8
	DD	FLAT:??_R1A@?0A@EA@facet@locale@std@@8
rdata$r	ENDS
;	COMDAT ??_R1A@?0A@EA@?$ctype@_W@std@@8
rdata$r	SEGMENT
??_R1A@?0A@EA@?$ctype@_W@std@@8 DD FLAT:??_R0?AV?$ctype@_W@std@@@8 ; std::ctype<wchar_t>::`RTTI Base Class Descriptor at (0,-1,0,64)'
	DD	02H
	DD	00H
	DD	0ffffffffH
	DD	00H
	DD	040H
	DD	FLAT:??_R3?$ctype@_W@std@@8
rdata$r	ENDS
;	COMDAT ??_R0?AV?$ctype@_W@std@@@8
_DATA	SEGMENT
??_R0?AV?$ctype@_W@std@@@8 DD FLAT:??_7type_info@@6B@	; std::ctype<wchar_t> `RTTI Type Descriptor'
	DD	00H
	DB	'.?AV?$ctype@_W@std@@', 00H
_DATA	ENDS
;	COMDAT ??_7?$ctype@D@std@@6B@
CONST	SEGMENT
??_7?$ctype@D@std@@6B@ DD FLAT:??_R4?$ctype@D@std@@6B@	; std::ctype<char>::`vftable'
	DD	FLAT:??_E?$ctype@D@std@@MAEPAXI@Z
	DD	FLAT:?do_tolower@?$ctype@D@std@@MBEPBDPADPBD@Z
	DD	FLAT:?do_tolower@?$ctype@D@std@@MBEDD@Z
	DD	FLAT:?do_toupper@?$ctype@D@std@@MBEPBDPADPBD@Z
	DD	FLAT:?do_toupper@?$ctype@D@std@@MBEDD@Z
	DD	FLAT:?do_widen@?$ctype@D@std@@MBEPBDPBD0PAD@Z
	DD	FLAT:?do_widen@?$ctype@D@std@@MBEDD@Z
	DD	FLAT:?do_narrow@?$ctype@D@std@@MBEPBDPBD0DPAD@Z
	DD	FLAT:?do_narrow@?$ctype@D@std@@MBEDDD@Z
CONST	ENDS
;	COMDAT ??_R4?$ctype@D@std@@6B@
rdata$r	SEGMENT
??_R4?$ctype@D@std@@6B@ DD 00H				; std::ctype<char>::`RTTI Complete Object Locator'
	DD	00H
	DD	00H
	DD	FLAT:??_R0?AV?$ctype@D@std@@@8
	DD	FLAT:??_R3?$ctype@D@std@@8
rdata$r	ENDS
;	COMDAT ??_R3?$ctype@D@std@@8
rdata$r	SEGMENT
??_R3?$ctype@D@std@@8 DD 00H				; std::ctype<char>::`RTTI Class Hierarchy Descriptor'
	DD	00H
	DD	03H
	DD	FLAT:??_R2?$ctype@D@std@@8
rdata$r	ENDS
;	COMDAT ??_R2?$ctype@D@std@@8
rdata$r	SEGMENT
??_R2?$ctype@D@std@@8 DD FLAT:??_R1A@?0A@EA@?$ctype@D@std@@8 ; std::ctype<char>::`RTTI Base Class Array'
	DD	FLAT:??_R1A@?0A@EA@ctype_base@std@@8
	DD	FLAT:??_R1A@?0A@EA@facet@locale@std@@8
rdata$r	ENDS
;	COMDAT ??_R1A@?0A@EA@?$ctype@D@std@@8
rdata$r	SEGMENT
??_R1A@?0A@EA@?$ctype@D@std@@8 DD FLAT:??_R0?AV?$ctype@D@std@@@8 ; std::ctype<char>::`RTTI Base Class Descriptor at (0,-1,0,64)'
	DD	02H
	DD	00H
	DD	0ffffffffH
	DD	00H
	DD	040H
	DD	FLAT:??_R3?$ctype@D@std@@8
rdata$r	ENDS
;	COMDAT ??_R0?AV?$ctype@D@std@@@8
_DATA	SEGMENT
??_R0?AV?$ctype@D@std@@@8 DD FLAT:??_7type_info@@6B@	; std::ctype<char> `RTTI Type Descriptor'
	DD	00H
	DB	'.?AV?$ctype@D@std@@', 00H
_DATA	ENDS
;	COMDAT ??_7ctype_base@std@@6B@
CONST	SEGMENT
??_7ctype_base@std@@6B@ DD FLAT:??_R4ctype_base@std@@6B@ ; std::ctype_base::`vftable'
	DD	FLAT:??_Ectype_base@std@@UAEPAXI@Z
CONST	ENDS
;	COMDAT ??_R4ctype_base@std@@6B@
rdata$r	SEGMENT
??_R4ctype_base@std@@6B@ DD 00H				; std::ctype_base::`RTTI Complete Object Locator'
	DD	00H
	DD	00H
	DD	FLAT:??_R0?AUctype_base@std@@@8
	DD	FLAT:??_R3ctype_base@std@@8
rdata$r	ENDS
;	COMDAT ??_R3ctype_base@std@@8
rdata$r	SEGMENT
??_R3ctype_base@std@@8 DD 00H				; std::ctype_base::`RTTI Class Hierarchy Descriptor'
	DD	00H
	DD	02H
	DD	FLAT:??_R2ctype_base@std@@8
rdata$r	ENDS
;	COMDAT ??_R2ctype_base@std@@8
rdata$r	SEGMENT
??_R2ctype_base@std@@8 DD FLAT:??_R1A@?0A@EA@ctype_base@std@@8 ; std::ctype_base::`RTTI Base Class Array'
	DD	FLAT:??_R1A@?0A@EA@facet@locale@std@@8
rdata$r	ENDS
;	COMDAT ??_R1A@?0A@EA@ctype_base@std@@8
rdata$r	SEGMENT
??_R1A@?0A@EA@ctype_base@std@@8 DD FLAT:??_R0?AUctype_base@std@@@8 ; std::ctype_base::`RTTI Base Class Descriptor at (0,-1,0,64)'
	DD	01H
	DD	00H
	DD	0ffffffffH
	DD	00H
	DD	040H
	DD	FLAT:??_R3ctype_base@std@@8
rdata$r	ENDS
;	COMDAT ??_R0?AUctype_base@std@@@8
_DATA	SEGMENT
??_R0?AUctype_base@std@@@8 DD FLAT:??_7type_info@@6B@	; std::ctype_base `RTTI Type Descriptor'
	DD	00H
	DB	'.?AUctype_base@std@@', 00H
_DATA	ENDS
;	COMDAT ??_7codecvt_base@std@@6B@
CONST	SEGMENT
??_7codecvt_base@std@@6B@ DD FLAT:??_R4codecvt_base@std@@6B@ ; std::codecvt_base::`vftable'
	DD	FLAT:??_Ecodecvt_base@std@@UAEPAXI@Z
	DD	FLAT:?do_always_noconv@codecvt_base@std@@MBE_NXZ
	DD	FLAT:?do_max_length@codecvt_base@std@@MBEHXZ
	DD	FLAT:?do_encoding@codecvt_base@std@@MBEHXZ
CONST	ENDS
;	COMDAT ??_R4codecvt_base@std@@6B@
rdata$r	SEGMENT
??_R4codecvt_base@std@@6B@ DD 00H			; std::codecvt_base::`RTTI Complete Object Locator'
	DD	00H
	DD	00H
	DD	FLAT:??_R0?AVcodecvt_base@std@@@8
	DD	FLAT:??_R3codecvt_base@std@@8
rdata$r	ENDS
;	COMDAT ??_R3codecvt_base@std@@8
rdata$r	SEGMENT
??_R3codecvt_base@std@@8 DD 00H				; std::codecvt_base::`RTTI Class Hierarchy Descriptor'
	DD	00H
	DD	02H
	DD	FLAT:??_R2codecvt_base@std@@8
rdata$r	ENDS
;	COMDAT ??_R2codecvt_base@std@@8
rdata$r	SEGMENT
??_R2codecvt_base@std@@8 DD FLAT:??_R1A@?0A@EA@codecvt_base@std@@8 ; std::codecvt_base::`RTTI Base Class Array'
	DD	FLAT:??_R1A@?0A@EA@facet@locale@std@@8
rdata$r	ENDS
;	COMDAT ??_R1A@?0A@EA@codecvt_base@std@@8
rdata$r	SEGMENT
??_R1A@?0A@EA@codecvt_base@std@@8 DD FLAT:??_R0?AVcodecvt_base@std@@@8 ; std::codecvt_base::`RTTI Base Class Descriptor at (0,-1,0,64)'
	DD	01H
	DD	00H
	DD	0ffffffffH
	DD	00H
	DD	040H
	DD	FLAT:??_R3codecvt_base@std@@8
rdata$r	ENDS
;	COMDAT ??_R0?AVcodecvt_base@std@@@8
_DATA	SEGMENT
??_R0?AVcodecvt_base@std@@@8 DD FLAT:??_7type_info@@6B@	; std::codecvt_base `RTTI Type Descriptor'
	DD	00H
	DB	'.?AVcodecvt_base@std@@', 00H
_DATA	ENDS
;	COMDAT ??_7facet@locale@std@@6B@
CONST	SEGMENT
??_7facet@locale@std@@6B@ DD FLAT:??_R4facet@locale@std@@6B@ ; std::locale::facet::`vftable'
	DD	FLAT:??_Efacet@locale@std@@UAEPAXI@Z
CONST	ENDS
;	COMDAT ??_R4facet@locale@std@@6B@
rdata$r	SEGMENT
??_R4facet@locale@std@@6B@ DD 00H			; std::locale::facet::`RTTI Complete Object Locator'
	DD	00H
	DD	00H
	DD	FLAT:??_R0?AVfacet@locale@std@@@8
	DD	FLAT:??_R3facet@locale@std@@8
rdata$r	ENDS
;	COMDAT ??_R3facet@locale@std@@8
rdata$r	SEGMENT
??_R3facet@locale@std@@8 DD 00H				; std::locale::facet::`RTTI Class Hierarchy Descriptor'
	DD	00H
	DD	01H
	DD	FLAT:??_R2facet@locale@std@@8
rdata$r	ENDS
;	COMDAT ??_R2facet@locale@std@@8
rdata$r	SEGMENT
??_R2facet@locale@std@@8 DD FLAT:??_R1A@?0A@EA@facet@locale@std@@8 ; std::locale::facet::`RTTI Base Class Array'
rdata$r	ENDS
;	COMDAT ??_R1A@?0A@EA@facet@locale@std@@8
rdata$r	SEGMENT
??_R1A@?0A@EA@facet@locale@std@@8 DD FLAT:??_R0?AVfacet@locale@std@@@8 ; std::locale::facet::`RTTI Base Class Descriptor at (0,-1,0,64)'
	DD	00H
	DD	00H
	DD	0ffffffffH
	DD	00H
	DD	040H
	DD	FLAT:??_R3facet@locale@std@@8
rdata$r	ENDS
;	COMDAT ??_R0?AVfacet@locale@std@@@8
_DATA	SEGMENT
??_R0?AVfacet@locale@std@@@8 DD FLAT:??_7type_info@@6B@	; std::locale::facet `RTTI Type Descriptor'
	DD	00H
	DB	'.?AVfacet@locale@std@@', 00H
_DATA	ENDS
;	COMDAT ??_7runtime_error@std@@6B@
CONST	SEGMENT
??_7runtime_error@std@@6B@ DD FLAT:??_R4runtime_error@std@@6B@ ; std::runtime_error::`vftable'
	DD	FLAT:??_Eruntime_error@std@@UAEPAXI@Z
	DD	FLAT:?what@exception@std@@UBEPBDXZ
CONST	ENDS
;	COMDAT ??_R4runtime_error@std@@6B@
rdata$r	SEGMENT
??_R4runtime_error@std@@6B@ DD 00H			; std::runtime_error::`RTTI Complete Object Locator'
	DD	00H
	DD	00H
	DD	FLAT:??_R0?AVruntime_error@std@@@8
	DD	FLAT:??_R3runtime_error@std@@8
rdata$r	ENDS
;	COMDAT ??_R3runtime_error@std@@8
rdata$r	SEGMENT
??_R3runtime_error@std@@8 DD 00H			; std::runtime_error::`RTTI Class Hierarchy Descriptor'
	DD	00H
	DD	02H
	DD	FLAT:??_R2runtime_error@std@@8
rdata$r	ENDS
;	COMDAT ??_R2runtime_error@std@@8
rdata$r	SEGMENT
??_R2runtime_error@std@@8 DD FLAT:??_R1A@?0A@EA@runtime_error@std@@8 ; std::runtime_error::`RTTI Base Class Array'
	DD	FLAT:??_R1A@?0A@EA@exception@std@@8
rdata$r	ENDS
;	COMDAT ??_R1A@?0A@EA@runtime_error@std@@8
rdata$r	SEGMENT
??_R1A@?0A@EA@runtime_error@std@@8 DD FLAT:??_R0?AVruntime_error@std@@@8 ; std::runtime_error::`RTTI Base Class Descriptor at (0,-1,0,64)'
	DD	01H
	DD	00H
	DD	0ffffffffH
	DD	00H
	DD	040H
	DD	FLAT:??_R3runtime_error@std@@8
rdata$r	ENDS
;	COMDAT ??_8?$basic_ofstream@DU?$char_traits@D@std@@@std@@7B@
CONST	SEGMENT
??_8?$basic_ofstream@DU?$char_traits@D@std@@@std@@7B@ DD 00H ; std::basic_ofstream<char,std::char_traits<char> >::`vbtable'
	DD	060H
CONST	ENDS
;	COMDAT ??_7?$basic_ofstream@DU?$char_traits@D@std@@@std@@6B@
CONST	SEGMENT
??_7?$basic_ofstream@DU?$char_traits@D@std@@@std@@6B@ DD FLAT:??_R4?$basic_ofstream@DU?$char_traits@D@std@@@std@@6B@ ; std::basic_ofstream<char,std::char_traits<char> >::`vftable'
	DD	FLAT:??_E?$basic_ofstream@DU?$char_traits@D@std@@@std@@UAEPAXI@Z
CONST	ENDS
;	COMDAT ??_R4?$basic_ofstream@DU?$char_traits@D@std@@@std@@6B@
rdata$r	SEGMENT
??_R4?$basic_ofstream@DU?$char_traits@D@std@@@std@@6B@ DD 00H ; std::basic_ofstream<char,std::char_traits<char> >::`RTTI Complete Object Locator'
	DD	060H
	DD	00H
	DD	FLAT:??_R0?AV?$basic_ofstream@DU?$char_traits@D@std@@@std@@@8
	DD	FLAT:??_R3?$basic_ofstream@DU?$char_traits@D@std@@@std@@8
rdata$r	ENDS
;	COMDAT ??_R3?$basic_ofstream@DU?$char_traits@D@std@@@std@@8
rdata$r	SEGMENT
??_R3?$basic_ofstream@DU?$char_traits@D@std@@@std@@8 DD 00H ; std::basic_ofstream<char,std::char_traits<char> >::`RTTI Class Hierarchy Descriptor'
	DD	00H
	DD	05H
	DD	FLAT:??_R2?$basic_ofstream@DU?$char_traits@D@std@@@std@@8
rdata$r	ENDS
;	COMDAT ??_R2?$basic_ofstream@DU?$char_traits@D@std@@@std@@8
rdata$r	SEGMENT
??_R2?$basic_ofstream@DU?$char_traits@D@std@@@std@@8 DD FLAT:??_R1A@?0A@EA@?$basic_ofstream@DU?$char_traits@D@std@@@std@@8 ; std::basic_ofstream<char,std::char_traits<char> >::`RTTI Base Class Array'
	DD	FLAT:??_R1A@?0A@EA@?$basic_ostream@DU?$char_traits@D@std@@@std@@8
	DD	FLAT:??_R1A@A@3FA@?$basic_ios@DU?$char_traits@D@std@@@std@@8
	DD	FLAT:??_R1A@A@3EA@ios_base@std@@8
	DD	FLAT:??_R17A@3EA@?$_Iosb@H@std@@8
rdata$r	ENDS
;	COMDAT ??_R1A@?0A@EA@?$basic_ofstream@DU?$char_traits@D@std@@@std@@8
rdata$r	SEGMENT
??_R1A@?0A@EA@?$basic_ofstream@DU?$char_traits@D@std@@@std@@8 DD FLAT:??_R0?AV?$basic_ofstream@DU?$char_traits@D@std@@@std@@@8 ; std::basic_ofstream<char,std::char_traits<char> >::`RTTI Base Class Descriptor at (0,-1,0,64)'
	DD	04H
	DD	00H
	DD	0ffffffffH
	DD	00H
	DD	040H
	DD	FLAT:??_R3?$basic_ofstream@DU?$char_traits@D@std@@@std@@8
rdata$r	ENDS
;	COMDAT ??_R0?AV?$basic_ofstream@DU?$char_traits@D@std@@@std@@@8
_DATA	SEGMENT
??_R0?AV?$basic_ofstream@DU?$char_traits@D@std@@@std@@@8 DD FLAT:??_7type_info@@6B@ ; std::basic_ofstream<char,std::char_traits<char> > `RTTI Type Descriptor'
	DD	00H
	DB	'.?AV?$basic_ofstream@DU?$char_traits@D@std@@@std@@', 00H
_DATA	ENDS
;	COMDAT ??_7?$basic_filebuf@DU?$char_traits@D@std@@@std@@6B@
CONST	SEGMENT
??_7?$basic_filebuf@DU?$char_traits@D@std@@@std@@6B@ DD FLAT:??_R4?$basic_filebuf@DU?$char_traits@D@std@@@std@@6B@ ; std::basic_filebuf<char,std::char_traits<char> >::`vftable'
	DD	FLAT:??_E?$basic_filebuf@DU?$char_traits@D@std@@@std@@UAEPAXI@Z
	DD	FLAT:?_Lock@?$basic_filebuf@DU?$char_traits@D@std@@@std@@UAEXXZ
	DD	FLAT:?_Unlock@?$basic_filebuf@DU?$char_traits@D@std@@@std@@UAEXXZ
	DD	FLAT:?overflow@?$basic_filebuf@DU?$char_traits@D@std@@@std@@MAEHH@Z
	DD	FLAT:?pbackfail@?$basic_filebuf@DU?$char_traits@D@std@@@std@@MAEHH@Z
	DD	FLAT:?showmanyc@?$basic_streambuf@DU?$char_traits@D@std@@@std@@MAE_JXZ
	DD	FLAT:?underflow@?$basic_filebuf@DU?$char_traits@D@std@@@std@@MAEHXZ
	DD	FLAT:?uflow@?$basic_filebuf@DU?$char_traits@D@std@@@std@@MAEHXZ
	DD	FLAT:?xsgetn@?$basic_streambuf@DU?$char_traits@D@std@@@std@@MAE_JPAD_J@Z
	DD	FLAT:?xsputn@?$basic_streambuf@DU?$char_traits@D@std@@@std@@MAE_JPBD_J@Z
	DD	FLAT:?seekoff@?$basic_filebuf@DU?$char_traits@D@std@@@std@@MAE?AV?$fpos@H@2@_JHH@Z
	DD	FLAT:?seekpos@?$basic_filebuf@DU?$char_traits@D@std@@@std@@MAE?AV?$fpos@H@2@V32@H@Z
	DD	FLAT:?setbuf@?$basic_filebuf@DU?$char_traits@D@std@@@std@@MAEPAV?$basic_streambuf@DU?$char_traits@D@std@@@2@PAD_J@Z
	DD	FLAT:?sync@?$basic_filebuf@DU?$char_traits@D@std@@@std@@MAEHXZ
	DD	FLAT:?imbue@?$basic_filebuf@DU?$char_traits@D@std@@@std@@MAEXABVlocale@2@@Z
CONST	ENDS
;	COMDAT ??_R4?$basic_filebuf@DU?$char_traits@D@std@@@std@@6B@
rdata$r	SEGMENT
??_R4?$basic_filebuf@DU?$char_traits@D@std@@@std@@6B@ DD 00H ; std::basic_filebuf<char,std::char_traits<char> >::`RTTI Complete Object Locator'
	DD	00H
	DD	00H
	DD	FLAT:??_R0?AV?$basic_filebuf@DU?$char_traits@D@std@@@std@@@8
	DD	FLAT:??_R3?$basic_filebuf@DU?$char_traits@D@std@@@std@@8
rdata$r	ENDS
;	COMDAT ??_R3?$basic_filebuf@DU?$char_traits@D@std@@@std@@8
rdata$r	SEGMENT
??_R3?$basic_filebuf@DU?$char_traits@D@std@@@std@@8 DD 00H ; std::basic_filebuf<char,std::char_traits<char> >::`RTTI Class Hierarchy Descriptor'
	DD	00H
	DD	02H
	DD	FLAT:??_R2?$basic_filebuf@DU?$char_traits@D@std@@@std@@8
rdata$r	ENDS
;	COMDAT ??_R2?$basic_filebuf@DU?$char_traits@D@std@@@std@@8
rdata$r	SEGMENT
??_R2?$basic_filebuf@DU?$char_traits@D@std@@@std@@8 DD FLAT:??_R1A@?0A@EA@?$basic_filebuf@DU?$char_traits@D@std@@@std@@8 ; std::basic_filebuf<char,std::char_traits<char> >::`RTTI Base Class Array'
	DD	FLAT:??_R1A@?0A@EA@?$basic_streambuf@DU?$char_traits@D@std@@@std@@8
rdata$r	ENDS
;	COMDAT ??_R1A@?0A@EA@?$basic_filebuf@DU?$char_traits@D@std@@@std@@8
rdata$r	SEGMENT
??_R1A@?0A@EA@?$basic_filebuf@DU?$char_traits@D@std@@@std@@8 DD FLAT:??_R0?AV?$basic_filebuf@DU?$char_traits@D@std@@@std@@@8 ; std::basic_filebuf<char,std::char_traits<char> >::`RTTI Base Class Descriptor at (0,-1,0,64)'
	DD	01H
	DD	00H
	DD	0ffffffffH
	DD	00H
	DD	040H
	DD	FLAT:??_R3?$basic_filebuf@DU?$char_traits@D@std@@@std@@8
rdata$r	ENDS
;	COMDAT ??_R0?AV?$basic_filebuf@DU?$char_traits@D@std@@@std@@@8
_DATA	SEGMENT
??_R0?AV?$basic_filebuf@DU?$char_traits@D@std@@@std@@@8 DD FLAT:??_7type_info@@6B@ ; std::basic_filebuf<char,std::char_traits<char> > `RTTI Type Descriptor'
	DD	00H
	DB	'.?AV?$basic_filebuf@DU?$char_traits@D@std@@@std@@', 00H
_DATA	ENDS
;	COMDAT ??_8?$basic_ostream@DU?$char_traits@D@std@@@std@@7B@
CONST	SEGMENT
??_8?$basic_ostream@DU?$char_traits@D@std@@@std@@7B@ DD 00H ; std::basic_ostream<char,std::char_traits<char> >::`vbtable'
	DD	08H
CONST	ENDS
;	COMDAT ??_7?$basic_ostream@DU?$char_traits@D@std@@@std@@6B@
CONST	SEGMENT
??_7?$basic_ostream@DU?$char_traits@D@std@@@std@@6B@ DD FLAT:??_R4?$basic_ostream@DU?$char_traits@D@std@@@std@@6B@ ; std::basic_ostream<char,std::char_traits<char> >::`vftable'
	DD	FLAT:??_E?$basic_ostream@DU?$char_traits@D@std@@@std@@UAEPAXI@Z
CONST	ENDS
;	COMDAT ??_R4?$basic_ostream@DU?$char_traits@D@std@@@std@@6B@
rdata$r	SEGMENT
??_R4?$basic_ostream@DU?$char_traits@D@std@@@std@@6B@ DD 00H ; std::basic_ostream<char,std::char_traits<char> >::`RTTI Complete Object Locator'
	DD	08H
	DD	00H
	DD	FLAT:??_R0?AV?$basic_ostream@DU?$char_traits@D@std@@@std@@@8
	DD	FLAT:??_R3?$basic_ostream@DU?$char_traits@D@std@@@std@@8
rdata$r	ENDS
;	COMDAT ??_R3?$basic_ostream@DU?$char_traits@D@std@@@std@@8
rdata$r	SEGMENT
??_R3?$basic_ostream@DU?$char_traits@D@std@@@std@@8 DD 00H ; std::basic_ostream<char,std::char_traits<char> >::`RTTI Class Hierarchy Descriptor'
	DD	00H
	DD	04H
	DD	FLAT:??_R2?$basic_ostream@DU?$char_traits@D@std@@@std@@8
rdata$r	ENDS
;	COMDAT ??_R2?$basic_ostream@DU?$char_traits@D@std@@@std@@8
rdata$r	SEGMENT
??_R2?$basic_ostream@DU?$char_traits@D@std@@@std@@8 DD FLAT:??_R1A@?0A@EA@?$basic_ostream@DU?$char_traits@D@std@@@std@@8 ; std::basic_ostream<char,std::char_traits<char> >::`RTTI Base Class Array'
	DD	FLAT:??_R1A@A@3FA@?$basic_ios@DU?$char_traits@D@std@@@std@@8
	DD	FLAT:??_R1A@A@3EA@ios_base@std@@8
	DD	FLAT:??_R17A@3EA@?$_Iosb@H@std@@8
rdata$r	ENDS
;	COMDAT ??_R17A@3EA@?$_Iosb@H@std@@8
rdata$r	SEGMENT
??_R17A@3EA@?$_Iosb@H@std@@8 DD FLAT:??_R0?AV?$_Iosb@H@std@@@8 ; std::_Iosb<int>::`RTTI Base Class Descriptor at (8,0,4,64)'
	DD	00H
	DD	08H
	DD	00H
	DD	04H
	DD	040H
	DD	FLAT:??_R3?$_Iosb@H@std@@8
rdata$r	ENDS
;	COMDAT ??_R1A@A@3EA@ios_base@std@@8
rdata$r	SEGMENT
??_R1A@A@3EA@ios_base@std@@8 DD FLAT:??_R0?AVios_base@std@@@8 ; std::ios_base::`RTTI Base Class Descriptor at (0,0,4,64)'
	DD	01H
	DD	00H
	DD	00H
	DD	04H
	DD	040H
	DD	FLAT:??_R3ios_base@std@@8
rdata$r	ENDS
;	COMDAT ??_R1A@A@3FA@?$basic_ios@DU?$char_traits@D@std@@@std@@8
rdata$r	SEGMENT
??_R1A@A@3FA@?$basic_ios@DU?$char_traits@D@std@@@std@@8 DD FLAT:??_R0?AV?$basic_ios@DU?$char_traits@D@std@@@std@@@8 ; std::basic_ios<char,std::char_traits<char> >::`RTTI Base Class Descriptor at (0,0,4,80)'
	DD	02H
	DD	00H
	DD	00H
	DD	04H
	DD	050H
	DD	FLAT:??_R3?$basic_ios@DU?$char_traits@D@std@@@std@@8
rdata$r	ENDS
;	COMDAT ??_R1A@?0A@EA@?$basic_ostream@DU?$char_traits@D@std@@@std@@8
rdata$r	SEGMENT
??_R1A@?0A@EA@?$basic_ostream@DU?$char_traits@D@std@@@std@@8 DD FLAT:??_R0?AV?$basic_ostream@DU?$char_traits@D@std@@@std@@@8 ; std::basic_ostream<char,std::char_traits<char> >::`RTTI Base Class Descriptor at (0,-1,0,64)'
	DD	03H
	DD	00H
	DD	0ffffffffH
	DD	00H
	DD	040H
	DD	FLAT:??_R3?$basic_ostream@DU?$char_traits@D@std@@@std@@8
rdata$r	ENDS
;	COMDAT ??_R0?AV?$basic_ostream@DU?$char_traits@D@std@@@std@@@8
_DATA	SEGMENT
??_R0?AV?$basic_ostream@DU?$char_traits@D@std@@@std@@@8 DD FLAT:??_7type_info@@6B@ ; std::basic_ostream<char,std::char_traits<char> > `RTTI Type Descriptor'
	DD	00H
	DB	'.?AV?$basic_ostream@DU?$char_traits@D@std@@@std@@', 00H
_DATA	ENDS
;	COMDAT ??_7?$basic_streambuf@DU?$char_traits@D@std@@@std@@6B@
CONST	SEGMENT
??_7?$basic_streambuf@DU?$char_traits@D@std@@@std@@6B@ DD FLAT:??_R4?$basic_streambuf@DU?$char_traits@D@std@@@std@@6B@ ; std::basic_streambuf<char,std::char_traits<char> >::`vftable'
	DD	FLAT:??_E?$basic_streambuf@DU?$char_traits@D@std@@@std@@UAEPAXI@Z
	DD	FLAT:?_Lock@?$basic_streambuf@DU?$char_traits@D@std@@@std@@UAEXXZ
	DD	FLAT:?_Unlock@?$basic_streambuf@DU?$char_traits@D@std@@@std@@UAEXXZ
	DD	FLAT:?overflow@?$basic_streambuf@DU?$char_traits@D@std@@@std@@MAEHH@Z
	DD	FLAT:?pbackfail@?$basic_streambuf@DU?$char_traits@D@std@@@std@@MAEHH@Z
	DD	FLAT:?showmanyc@?$basic_streambuf@DU?$char_traits@D@std@@@std@@MAE_JXZ
	DD	FLAT:?underflow@?$basic_streambuf@DU?$char_traits@D@std@@@std@@MAEHXZ
	DD	FLAT:?uflow@?$basic_streambuf@DU?$char_traits@D@std@@@std@@MAEHXZ
	DD	FLAT:?xsgetn@?$basic_streambuf@DU?$char_traits@D@std@@@std@@MAE_JPAD_J@Z
	DD	FLAT:?xsputn@?$basic_streambuf@DU?$char_traits@D@std@@@std@@MAE_JPBD_J@Z
	DD	FLAT:?seekoff@?$basic_streambuf@DU?$char_traits@D@std@@@std@@MAE?AV?$fpos@H@2@_JHH@Z
	DD	FLAT:?seekpos@?$basic_streambuf@DU?$char_traits@D@std@@@std@@MAE?AV?$fpos@H@2@V32@H@Z
	DD	FLAT:?setbuf@?$basic_streambuf@DU?$char_traits@D@std@@@std@@MAEPAV12@PAD_J@Z
	DD	FLAT:?sync@?$basic_streambuf@DU?$char_traits@D@std@@@std@@MAEHXZ
	DD	FLAT:?imbue@?$basic_streambuf@DU?$char_traits@D@std@@@std@@MAEXABVlocale@2@@Z
CONST	ENDS
;	COMDAT ??_R4?$basic_streambuf@DU?$char_traits@D@std@@@std@@6B@
rdata$r	SEGMENT
??_R4?$basic_streambuf@DU?$char_traits@D@std@@@std@@6B@ DD 00H ; std::basic_streambuf<char,std::char_traits<char> >::`RTTI Complete Object Locator'
	DD	00H
	DD	00H
	DD	FLAT:??_R0?AV?$basic_streambuf@DU?$char_traits@D@std@@@std@@@8
	DD	FLAT:??_R3?$basic_streambuf@DU?$char_traits@D@std@@@std@@8
rdata$r	ENDS
;	COMDAT ??_R3?$basic_streambuf@DU?$char_traits@D@std@@@std@@8
rdata$r	SEGMENT
??_R3?$basic_streambuf@DU?$char_traits@D@std@@@std@@8 DD 00H ; std::basic_streambuf<char,std::char_traits<char> >::`RTTI Class Hierarchy Descriptor'
	DD	00H
	DD	01H
	DD	FLAT:??_R2?$basic_streambuf@DU?$char_traits@D@std@@@std@@8
rdata$r	ENDS
;	COMDAT ??_R2?$basic_streambuf@DU?$char_traits@D@std@@@std@@8
rdata$r	SEGMENT
??_R2?$basic_streambuf@DU?$char_traits@D@std@@@std@@8 DD FLAT:??_R1A@?0A@EA@?$basic_streambuf@DU?$char_traits@D@std@@@std@@8 ; std::basic_streambuf<char,std::char_traits<char> >::`RTTI Base Class Array'
rdata$r	ENDS
;	COMDAT ??_R1A@?0A@EA@?$basic_streambuf@DU?$char_traits@D@std@@@std@@8
rdata$r	SEGMENT
??_R1A@?0A@EA@?$basic_streambuf@DU?$char_traits@D@std@@@std@@8 DD FLAT:??_R0?AV?$basic_streambuf@DU?$char_traits@D@std@@@std@@@8 ; std::basic_streambuf<char,std::char_traits<char> >::`RTTI Base Class Descriptor at (0,-1,0,64)'
	DD	00H
	DD	00H
	DD	0ffffffffH
	DD	00H
	DD	040H
	DD	FLAT:??_R3?$basic_streambuf@DU?$char_traits@D@std@@@std@@8
rdata$r	ENDS
;	COMDAT ??_R0?AV?$basic_streambuf@DU?$char_traits@D@std@@@std@@@8
_DATA	SEGMENT
??_R0?AV?$basic_streambuf@DU?$char_traits@D@std@@@std@@@8 DD FLAT:??_7type_info@@6B@ ; std::basic_streambuf<char,std::char_traits<char> > `RTTI Type Descriptor'
	DD	00H
	DB	'.?AV?$basic_streambuf@DU?$char_traits@D@std@@@std@@', 00H
_DATA	ENDS
;	COMDAT ??_7?$basic_ios@DU?$char_traits@D@std@@@std@@6B@
CONST	SEGMENT
??_7?$basic_ios@DU?$char_traits@D@std@@@std@@6B@ DD FLAT:??_R4?$basic_ios@DU?$char_traits@D@std@@@std@@6B@ ; std::basic_ios<char,std::char_traits<char> >::`vftable'
	DD	FLAT:??_E?$basic_ios@DU?$char_traits@D@std@@@std@@UAEPAXI@Z
CONST	ENDS
;	COMDAT ??_R4?$basic_ios@DU?$char_traits@D@std@@@std@@6B@
rdata$r	SEGMENT
??_R4?$basic_ios@DU?$char_traits@D@std@@@std@@6B@ DD 00H ; std::basic_ios<char,std::char_traits<char> >::`RTTI Complete Object Locator'
	DD	00H
	DD	00H
	DD	FLAT:??_R0?AV?$basic_ios@DU?$char_traits@D@std@@@std@@@8
	DD	FLAT:??_R3?$basic_ios@DU?$char_traits@D@std@@@std@@8
rdata$r	ENDS
;	COMDAT ??_R3?$basic_ios@DU?$char_traits@D@std@@@std@@8
rdata$r	SEGMENT
??_R3?$basic_ios@DU?$char_traits@D@std@@@std@@8 DD 00H	; std::basic_ios<char,std::char_traits<char> >::`RTTI Class Hierarchy Descriptor'
	DD	00H
	DD	03H
	DD	FLAT:??_R2?$basic_ios@DU?$char_traits@D@std@@@std@@8
rdata$r	ENDS
;	COMDAT ??_R2?$basic_ios@DU?$char_traits@D@std@@@std@@8
rdata$r	SEGMENT
??_R2?$basic_ios@DU?$char_traits@D@std@@@std@@8 DD FLAT:??_R1A@?0A@EA@?$basic_ios@DU?$char_traits@D@std@@@std@@8 ; std::basic_ios<char,std::char_traits<char> >::`RTTI Base Class Array'
	DD	FLAT:??_R1A@?0A@EA@ios_base@std@@8
	DD	FLAT:??_R17?0A@EA@?$_Iosb@H@std@@8
rdata$r	ENDS
;	COMDAT ??_R1A@?0A@EA@?$basic_ios@DU?$char_traits@D@std@@@std@@8
rdata$r	SEGMENT
??_R1A@?0A@EA@?$basic_ios@DU?$char_traits@D@std@@@std@@8 DD FLAT:??_R0?AV?$basic_ios@DU?$char_traits@D@std@@@std@@@8 ; std::basic_ios<char,std::char_traits<char> >::`RTTI Base Class Descriptor at (0,-1,0,64)'
	DD	02H
	DD	00H
	DD	0ffffffffH
	DD	00H
	DD	040H
	DD	FLAT:??_R3?$basic_ios@DU?$char_traits@D@std@@@std@@8
rdata$r	ENDS
;	COMDAT ??_R0?AV?$basic_ios@DU?$char_traits@D@std@@@std@@@8
_DATA	SEGMENT
??_R0?AV?$basic_ios@DU?$char_traits@D@std@@@std@@@8 DD FLAT:??_7type_info@@6B@ ; std::basic_ios<char,std::char_traits<char> > `RTTI Type Descriptor'
	DD	00H
	DB	'.?AV?$basic_ios@DU?$char_traits@D@std@@@std@@', 00H
_DATA	ENDS
;	COMDAT ??_7ios_base@std@@6B@
CONST	SEGMENT
??_7ios_base@std@@6B@ DD FLAT:??_R4ios_base@std@@6B@	; std::ios_base::`vftable'
	DD	FLAT:??_Eios_base@std@@UAEPAXI@Z
CONST	ENDS
;	COMDAT ??_R4ios_base@std@@6B@
rdata$r	SEGMENT
??_R4ios_base@std@@6B@ DD 00H				; std::ios_base::`RTTI Complete Object Locator'
	DD	00H
	DD	00H
	DD	FLAT:??_R0?AVios_base@std@@@8
	DD	FLAT:??_R3ios_base@std@@8
rdata$r	ENDS
;	COMDAT ??_R3ios_base@std@@8
rdata$r	SEGMENT
??_R3ios_base@std@@8 DD 00H				; std::ios_base::`RTTI Class Hierarchy Descriptor'
	DD	00H
	DD	02H
	DD	FLAT:??_R2ios_base@std@@8
rdata$r	ENDS
;	COMDAT ??_R2ios_base@std@@8
rdata$r	SEGMENT
??_R2ios_base@std@@8 DD FLAT:??_R1A@?0A@EA@ios_base@std@@8 ; std::ios_base::`RTTI Base Class Array'
	DD	FLAT:??_R17?0A@EA@?$_Iosb@H@std@@8
rdata$r	ENDS
;	COMDAT ??_R17?0A@EA@?$_Iosb@H@std@@8
rdata$r	SEGMENT
??_R17?0A@EA@?$_Iosb@H@std@@8 DD FLAT:??_R0?AV?$_Iosb@H@std@@@8 ; std::_Iosb<int>::`RTTI Base Class Descriptor at (8,-1,0,64)'
	DD	00H
	DD	08H
	DD	0ffffffffH
	DD	00H
	DD	040H
	DD	FLAT:??_R3?$_Iosb@H@std@@8
rdata$r	ENDS
;	COMDAT ??_R3?$_Iosb@H@std@@8
rdata$r	SEGMENT
??_R3?$_Iosb@H@std@@8 DD 00H				; std::_Iosb<int>::`RTTI Class Hierarchy Descriptor'
	DD	00H
	DD	01H
	DD	FLAT:??_R2?$_Iosb@H@std@@8
rdata$r	ENDS
;	COMDAT ??_R2?$_Iosb@H@std@@8
rdata$r	SEGMENT
??_R2?$_Iosb@H@std@@8 DD FLAT:??_R1A@?0A@EA@?$_Iosb@H@std@@8 ; std::_Iosb<int>::`RTTI Base Class Array'
rdata$r	ENDS
;	COMDAT ??_R1A@?0A@EA@?$_Iosb@H@std@@8
rdata$r	SEGMENT
??_R1A@?0A@EA@?$_Iosb@H@std@@8 DD FLAT:??_R0?AV?$_Iosb@H@std@@@8 ; std::_Iosb<int>::`RTTI Base Class Descriptor at (0,-1,0,64)'
	DD	00H
	DD	00H
	DD	0ffffffffH
	DD	00H
	DD	040H
	DD	FLAT:??_R3?$_Iosb@H@std@@8
rdata$r	ENDS
;	COMDAT ??_R0?AV?$_Iosb@H@std@@@8
_DATA	SEGMENT
??_R0?AV?$_Iosb@H@std@@@8 DD FLAT:??_7type_info@@6B@	; std::_Iosb<int> `RTTI Type Descriptor'
	DD	00H
	DB	'.?AV?$_Iosb@H@std@@', 00H
_DATA	ENDS
;	COMDAT ??_R1A@?0A@EA@ios_base@std@@8
rdata$r	SEGMENT
??_R1A@?0A@EA@ios_base@std@@8 DD FLAT:??_R0?AVios_base@std@@@8 ; std::ios_base::`RTTI Base Class Descriptor at (0,-1,0,64)'
	DD	01H
	DD	00H
	DD	0ffffffffH
	DD	00H
	DD	040H
	DD	FLAT:??_R3ios_base@std@@8
rdata$r	ENDS
;	COMDAT ??_R0?AVios_base@std@@@8
_DATA	SEGMENT
??_R0?AVios_base@std@@@8 DD FLAT:??_7type_info@@6B@	; std::ios_base `RTTI Type Descriptor'
	DD	00H
	DB	'.?AVios_base@std@@', 00H
_DATA	ENDS
;	COMDAT ??_7bad_alloc@std@@6B@
CONST	SEGMENT
??_7bad_alloc@std@@6B@ DD FLAT:??_R4bad_alloc@std@@6B@	; std::bad_alloc::`vftable'
	DD	FLAT:??_Ebad_alloc@std@@UAEPAXI@Z
	DD	FLAT:?what@exception@std@@UBEPBDXZ
CONST	ENDS
;	COMDAT ??_R4bad_alloc@std@@6B@
rdata$r	SEGMENT
??_R4bad_alloc@std@@6B@ DD 00H				; std::bad_alloc::`RTTI Complete Object Locator'
	DD	00H
	DD	00H
	DD	FLAT:??_R0?AVbad_alloc@std@@@8
	DD	FLAT:??_R3bad_alloc@std@@8
rdata$r	ENDS
;	COMDAT ??_R3bad_alloc@std@@8
rdata$r	SEGMENT
??_R3bad_alloc@std@@8 DD 00H				; std::bad_alloc::`RTTI Class Hierarchy Descriptor'
	DD	00H
	DD	02H
	DD	FLAT:??_R2bad_alloc@std@@8
rdata$r	ENDS
;	COMDAT ??_R2bad_alloc@std@@8
rdata$r	SEGMENT
??_R2bad_alloc@std@@8 DD FLAT:??_R1A@?0A@EA@bad_alloc@std@@8 ; std::bad_alloc::`RTTI Base Class Array'
	DD	FLAT:??_R1A@?0A@EA@exception@std@@8
rdata$r	ENDS
;	COMDAT ??_R1A@?0A@EA@exception@std@@8
rdata$r	SEGMENT
??_R1A@?0A@EA@exception@std@@8 DD FLAT:??_R0?AVexception@std@@@8 ; std::exception::`RTTI Base Class Descriptor at (0,-1,0,64)'
	DD	00H
	DD	00H
	DD	0ffffffffH
	DD	00H
	DD	040H
	DD	FLAT:??_R3exception@std@@8
rdata$r	ENDS
;	COMDAT ??_R3exception@std@@8
rdata$r	SEGMENT
??_R3exception@std@@8 DD 00H				; std::exception::`RTTI Class Hierarchy Descriptor'
	DD	00H
	DD	01H
	DD	FLAT:??_R2exception@std@@8
rdata$r	ENDS
;	COMDAT ??_R2exception@std@@8
rdata$r	SEGMENT
??_R2exception@std@@8 DD FLAT:??_R1A@?0A@EA@exception@std@@8 ; std::exception::`RTTI Base Class Array'
rdata$r	ENDS
;	COMDAT ??_R1A@?0A@EA@bad_alloc@std@@8
rdata$r	SEGMENT
??_R1A@?0A@EA@bad_alloc@std@@8 DD FLAT:??_R0?AVbad_alloc@std@@@8 ; std::bad_alloc::`RTTI Base Class Descriptor at (0,-1,0,64)'
	DD	01H
	DD	00H
	DD	0ffffffffH
	DD	00H
	DD	040H
	DD	FLAT:??_R3bad_alloc@std@@8
rdata$r	ENDS
;	COMDAT __TI2?AVbad_alloc@std@@
xdata$x	SEGMENT
__TI2?AVbad_alloc@std@@ DD 00H
	DD	FLAT:??1bad_alloc@std@@UAE@XZ
	DD	00H
	DD	FLAT:__CTA2?AVbad_alloc@std@@
xdata$x	ENDS
;	COMDAT __CTA2?AVbad_alloc@std@@
xdata$x	SEGMENT
__CTA2?AVbad_alloc@std@@ DD 02H
	DD	FLAT:__CT??_R0?AVbad_alloc@std@@@8??0bad_alloc@std@@QAE@ABV01@@Z12
	DD	FLAT:__CT??_R0?AVexception@std@@@8??0exception@std@@QAE@ABV01@@Z12
xdata$x	ENDS
;	COMDAT __CT??_R0?AVbad_alloc@std@@@8??0bad_alloc@std@@QAE@ABV01@@Z12
xdata$x	SEGMENT
__CT??_R0?AVbad_alloc@std@@@8??0bad_alloc@std@@QAE@ABV01@@Z12 DD 00H
	DD	FLAT:??_R0?AVbad_alloc@std@@@8
	DD	00H
	DD	0ffffffffH
	ORG $+4
	DD	0cH
	DD	FLAT:??0bad_alloc@std@@QAE@ABV01@@Z
xdata$x	ENDS
;	COMDAT ??_R0?AVbad_alloc@std@@@8
_DATA	SEGMENT
??_R0?AVbad_alloc@std@@@8 DD FLAT:??_7type_info@@6B@	; std::bad_alloc `RTTI Type Descriptor'
	DD	00H
	DB	'.?AVbad_alloc@std@@', 00H
_DATA	ENDS
;	COMDAT ?_Stz@?$fpos@H@std@@0HB
CONST	SEGMENT
?_Stz@?$fpos@H@std@@0HB DD 00H				; std::fpos<int>::_Stz
CONST	ENDS
;	COMDAT __TI2?AVbad_cast@std@@
xdata$x	SEGMENT
__TI2?AVbad_cast@std@@ DD 00H
	DD	FLAT:??1bad_cast@std@@UAE@XZ
	DD	00H
	DD	FLAT:__CTA2?AVbad_cast@std@@
xdata$x	ENDS
;	COMDAT __CTA2?AVbad_cast@std@@
xdata$x	SEGMENT
__CTA2?AVbad_cast@std@@ DD 02H
	DD	FLAT:__CT??_R0?AVbad_cast@std@@@8??0bad_cast@std@@QAE@ABV01@@Z12
	DD	FLAT:__CT??_R0?AVexception@std@@@8??0exception@std@@QAE@ABV01@@Z12
xdata$x	ENDS
;	COMDAT __CT??_R0?AVbad_cast@std@@@8??0bad_cast@std@@QAE@ABV01@@Z12
xdata$x	SEGMENT
__CT??_R0?AVbad_cast@std@@@8??0bad_cast@std@@QAE@ABV01@@Z12 DD 00H
	DD	FLAT:??_R0?AVbad_cast@std@@@8
	DD	00H
	DD	0ffffffffH
	ORG $+4
	DD	0cH
	DD	FLAT:??0bad_cast@std@@QAE@ABV01@@Z
xdata$x	ENDS
;	COMDAT ??_R0?AVbad_cast@std@@@8
_DATA	SEGMENT
??_R0?AVbad_cast@std@@@8 DD FLAT:??_7type_info@@6B@	; std::bad_cast `RTTI Type Descriptor'
	DD	00H
	DB	'.?AVbad_cast@std@@', 00H
_DATA	ENDS
;	COMDAT ??_C@_08EPJLHIJG@bad?5cast?$AA@
CONST	SEGMENT
??_C@_08EPJLHIJG@bad?5cast?$AA@ DB 'bad cast', 00H	; `string'
CONST	ENDS
;	COMDAT ?npos@?$basic_string@DU?$char_traits@D@std@@V?$allocator@D@2@@std@@2IB
CONST	SEGMENT
?npos@?$basic_string@DU?$char_traits@D@std@@V?$allocator@D@2@@std@@2IB DD 0ffffffffH ; std::basic_string<char,std::char_traits<char>,std::allocator<char> >::npos
CONST	ENDS
;	COMDAT ??_C@_01KGKMHCOC@e?$AA@
CONST	SEGMENT
??_C@_01KGKMHCOC@e?$AA@ DB 'e', 00H			; `string'
CONST	ENDS
;	COMDAT ??_C@_01DDCIFGEA@E?$AA@
CONST	SEGMENT
??_C@_01DDCIFGEA@E?$AA@ DB 'E', 00H			; `string'
CONST	ENDS
;	COMDAT ??_C@_0BI@CFPLBAOH@invalid?5string?5position?$AA@
CONST	SEGMENT
??_C@_0BI@CFPLBAOH@invalid?5string?5position?$AA@ DB 'invalid string posi'
	DB	'tion', 00H					; `string'
CONST	ENDS
;	COMDAT ??_C@_0BA@JFNIOLAK@string?5too?5long?$AA@
CONST	SEGMENT
??_C@_0BA@JFNIOLAK@string?5too?5long?$AA@ DB 'string too long', 00H ; `string'
CONST	ENDS
;	COMDAT ??_C@_02BBAHNLBA@?$CFp?$AA@
CONST	SEGMENT
??_C@_02BBAHNLBA@?$CFp?$AA@ DB '%p', 00H		; `string'
CONST	ENDS
;	COMDAT ??_C@_02CLHGNPPK@Lu?$AA@
CONST	SEGMENT
??_C@_02CLHGNPPK@Lu?$AA@ DB 'Lu', 00H			; `string'
CONST	ENDS
;	COMDAT ??_C@_02HIKPPMOK@Ld?$AA@
CONST	SEGMENT
??_C@_02HIKPPMOK@Ld?$AA@ DB 'Ld', 00H			; `string'
CONST	ENDS
;	COMDAT ??_C@_02BDDLJJBK@lu?$AA@
CONST	SEGMENT
??_C@_02BDDLJJBK@lu?$AA@ DB 'lu', 00H			; `string'
CONST	ENDS
;	COMDAT ??_C@_02EAOCLKAK@ld?$AA@
CONST	SEGMENT
??_C@_02EAOCLKAK@ld?$AA@ DB 'ld', 00H			; `string'
CONST	ENDS
;	COMDAT ??_C@_0CL@JANNNNF@?6?7?7?7?$DMEXE_TYPE?$DODLL?$DM?1EXE_TYPE?$DO?6?7?7?7@
CONST	SEGMENT
??_C@_0CL@JANNNNF@?6?7?7?7?$DMEXE_TYPE?$DODLL?$DM?1EXE_TYPE?$DO?6?7?7?7@ DB 0aH
	DB	09H, 09H, 09H, '<EXE_TYPE>DLL</EXE_TYPE>', 0aH, 09H, 09H, 09H, '<'
	DB	'ISSIGNED>', 00H				; `string'
CONST	ENDS
;	COMDAT ??_C@_0O@LNDEICJJ@Filtered?5dll?5?$AA@
CONST	SEGMENT
??_C@_0O@LNDEICJJ@Filtered?5dll?5?$AA@ DB 'Filtered dll ', 00H ; `string'
CONST	ENDS
;	COMDAT ??_C@_03OPIBJLCE@DLL?$AA@
CONST	SEGMENT
??_C@_03OPIBJLCE@DLL?$AA@ DB 'DLL', 00H			; `string'
CONST	ENDS
;	COMDAT ??_C@_03OCHKFGFI@dll?$AA@
CONST	SEGMENT
??_C@_03OCHKFGFI@dll?$AA@ DB 'dll', 00H			; `string'
CONST	ENDS
;	COMDAT ??_C@_0L@MCJCKBAH@?6?7?7?$DMIMAGE?$DO?$AA@
CONST	SEGMENT
??_C@_0L@MCJCKBAH@?6?7?7?$DMIMAGE?$DO?$AA@ DB 0aH, 09H, 09H, '<IMAGE>', 00H ; `string'
CONST	ENDS
;	COMDAT ??_C@_0L@EENDHJPF@?6?7?7?7?$DMPATH?$DO?$AA@
CONST	SEGMENT
??_C@_0L@EENDHJPF@?6?7?7?7?$DMPATH?$DO?$AA@ DB 0aH, 09H, 09H, 09H, '<PATH'
	DB	'>', 00H					; `string'
CONST	ENDS
;	COMDAT ??_C@_07GDHEAJCP@?$DM?1PATH?$DO?$AA@
CONST	SEGMENT
??_C@_07GDHEAJCP@?$DM?1PATH?$DO?$AA@ DB '</PATH>', 00H	; `string'
CONST	ENDS
;	COMDAT ??_C@_09IJOLEHKB@?6?7?7?7?$DMMD5?$DO?$AA@
CONST	SEGMENT
??_C@_09IJOLEHKB@?6?7?7?7?$DMMD5?$DO?$AA@ DB 0aH, 09H, 09H, 09H, '<MD5>', 00H ; `string'
CONST	ENDS
;	COMDAT ??_C@_06CMNKDHNA@?$DM?1MD5?$DO?$AA@
CONST	SEGMENT
??_C@_06CMNKDHNA@?$DM?1MD5?$DO?$AA@ DB '</MD5>', 00H	; `string'
CONST	ENDS
;	COMDAT ??_C@_0CL@NLIMOMJO@?6?7?7?7?$DMEXE_TYPE?$DOEXE?$DM?1EXE_TYPE?$DO?6?7?7?7@
CONST	SEGMENT
??_C@_0CL@NLIMOMJO@?6?7?7?7?$DMEXE_TYPE?$DOEXE?$DM?1EXE_TYPE?$DO?6?7?7?7@ DB 0aH
	DB	09H, 09H, 09H, '<EXE_TYPE>EXE</EXE_TYPE>', 0aH, 09H, 09H, 09H, '<'
	DB	'ISSIGNED>', 00H				; `string'
CONST	ENDS
;	COMDAT ??_C@_0M@MMCFOGMA@?$DM?1ISSIGNED?$DO?$AA@
CONST	SEGMENT
??_C@_0M@MMCFOGMA@?$DM?1ISSIGNED?$DO?$AA@ DB '</ISSIGNED>', 00H ; `string'
CONST	ENDS
;	COMDAT ??_C@_0BD@ICJDJOL@?6?7?7?7?$DMDATE_CREATED?$DO?$AA@
CONST	SEGMENT
??_C@_0BD@ICJDJOL@?6?7?7?7?$DMDATE_CREATED?$DO?$AA@ DB 0aH, 09H, 09H, 09H
	DB	'<DATE_CREATED>', 00H			; `string'
CONST	ENDS
;	COMDAT ??_C@_0BA@EGEFBFG@?$DM?1DATE_CREATED?$DO?$AA@
CONST	SEGMENT
??_C@_0BA@EGEFBFG@?$DM?1DATE_CREATED?$DO?$AA@ DB '</DATE_CREATED>', 00H ; `string'
CONST	ENDS
;	COMDAT ??_C@_0BE@KACCBGKK@?6?7?7?7?$DMDATE_MODIFIED?$DO?$AA@
CONST	SEGMENT
??_C@_0BE@KACCBGKK@?6?7?7?7?$DMDATE_MODIFIED?$DO?$AA@ DB 0aH, 09H, 09H, 09H
	DB	'<DATE_MODIFIED>', 00H			; `string'
CONST	ENDS
;	COMDAT ??_C@_0BB@BFPOJEPD@?$DM?1DATE_MODIFIED?$DO?$AA@
CONST	SEGMENT
??_C@_0BB@BFPOJEPD@?$DM?1DATE_MODIFIED?$DO?$AA@ DB '</DATE_MODIFIED>', 00H ; `string'
CONST	ENDS
;	COMDAT ??_C@_0BE@OIAEHKFG@?6?7?7?7?$DMDATE_ACCESSED?$DO?$AA@
CONST	SEGMENT
??_C@_0BE@OIAEHKFG@?6?7?7?7?$DMDATE_ACCESSED?$DO?$AA@ DB 0aH, 09H, 09H, 09H
	DB	'<DATE_ACCESSED>', 00H			; `string'
CONST	ENDS
;	COMDAT ??_C@_0BB@FNNIPIAP@?$DM?1DATE_ACCESSED?$DO?$AA@
CONST	SEGMENT
??_C@_0BB@FNNIPIAP@?$DM?1DATE_ACCESSED?$DO?$AA@ DB '</DATE_ACCESSED>', 00H ; `string'
CONST	ENDS
;	COMDAT ??_C@_0CG@GIMPMKF@?6?7?7?7?$DMPE_STATIC_FLAGS?$DO?6?7?7?7?7?$DMFILE_@
CONST	SEGMENT
??_C@_0CG@GIMPMKF@?6?7?7?7?$DMPE_STATIC_FLAGS?$DO?6?7?7?7?7?$DMFILE_@ DB 0aH
	DB	09H, 09H, 09H, '<PE_STATIC_FLAGS>', 0aH, 09H, 09H, 09H, 09H, '<'
	DB	'FILE_SIZE>', 00H				; `string'
CONST	ENDS
;	COMDAT ??_C@_0CO@JCAACMAP@?$DM?1FILE_SIZE?$DO?6?7?7?7?$DM?1PE_STATIC_FLAG@
CONST	SEGMENT
??_C@_0CO@JCAACMAP@?$DM?1FILE_SIZE?$DO?6?7?7?7?$DM?1PE_STATIC_FLAG@ DB '<'
	DB	'/FILE_SIZE>', 0aH, 09H, 09H, 09H, '</PE_STATIC_FLAGS>', 0aH, 09H
	DB	09H, '</IMAGE>', 00H				; `string'
CONST	ENDS
;	COMDAT ??_C@_0O@FAPOFAGO@Filtered?5exe?5?$AA@
CONST	SEGMENT
??_C@_0O@FAPOFAGO@Filtered?5exe?5?$AA@ DB 'Filtered exe ', 00H ; `string'
CONST	ENDS
;	COMDAT ??_C@_03JNNAEMKE@EXE?$AA@
CONST	SEGMENT
??_C@_03JNNAEMKE@EXE?$AA@ DB 'EXE', 00H			; `string'
CONST	ENDS
;	COMDAT ??_C@_03JACLIBNI@exe?$AA@
CONST	SEGMENT
??_C@_03JACLIBNI@exe?$AA@ DB 'exe', 00H			; `string'
CONST	ENDS
;	COMDAT ??_C@_01KICIPPFI@?2?$AA@
CONST	SEGMENT
??_C@_01KICIPPFI@?2?$AA@ DB '\', 00H			; `string'
CONST	ENDS
;	COMDAT ??_C@_02DJGKEECL@?4?4?$AA@
CONST	SEGMENT
??_C@_02DJGKEECL@?4?4?$AA@ DB '..', 00H			; `string'
CONST	ENDS
;	COMDAT ??_C@_01LFCBOECM@?4?$AA@
CONST	SEGMENT
??_C@_01LFCBOECM@?4?$AA@ DB '.', 00H			; `string'
CONST	ENDS
;	COMDAT ??_C@_02KHDDNBB@?2?$CK?$AA@
CONST	SEGMENT
??_C@_02KHDDNBB@?2?$CK?$AA@ DB '\*', 00H		; `string'
CONST	ENDS
;	COMDAT ??_C@_04IICBPGDH@s2ws?$AA@
CONST	SEGMENT
??_C@_04IICBPGDH@s2ws?$AA@ DB 's2ws', 00H		; `string'
CONST	ENDS
;	COMDAT ??_C@_02HHAEMJFE@?2?1?$AA@
CONST	SEGMENT
??_C@_02HHAEMJFE@?2?1?$AA@ DB '\/', 00H			; `string'
CONST	ENDS
;	COMDAT ??_C@_0BP@PKBPBLAD@?5a?5?9tzip?5reports?4zip?5?4?2reports?$AA@
CONST	SEGMENT
??_C@_0BP@PKBPBLAD@?5a?5?9tzip?5reports?4zip?5?4?2reports?$AA@ DB ' a -tz'
	DB	'ip reports.zip .\reports', 00H		; `string'
CONST	ENDS
;	COMDAT ??_C@_07KOAEBJDG@7za?4exe?$AA@
CONST	SEGMENT
??_C@_07KOAEBJDG@7za?4exe?$AA@ DB '7za.exe', 00H	; `string'
CONST	ENDS
;	COMDAT ??_C@_0BG@DHGDNDEE@?6?7?$DM?1IMAGES?$DO?6?$DM?1REPORT?$DO?$AA@
CONST	SEGMENT
??_C@_0BG@DHGDNDEE@?6?7?$DM?1IMAGES?$DO?6?$DM?1REPORT?$DO?$AA@ DB 0aH, 09H
	DB	'</IMAGES>', 0aH, '</REPORT>', 00H		; `string'
CONST	ENDS
;	COMDAT ??_C@_0BF@JDNLNPKJ@?2Program?5Files?2Test?2?$AA@
CONST	SEGMENT
??_C@_0BF@JDNLNPKJ@?2Program?5Files?2Test?2?$AA@ DB '\Program Files\Test\'
	DB	00H						; `string'
CONST	ENDS
;	COMDAT ??_C@_0L@IMNIGAFB@Scanning?4?4?$AA@
CONST	SEGMENT
??_C@_0L@IMNIGAFB@Scanning?4?4?$AA@ DB 'Scanning..', 00H ; `string'
CONST	ENDS
;	COMDAT ??_C@_0BD@EBNJBNP@?$DMREPORT?$DO?6?7?$DMIMAGES?$DO?$AA@
CONST	SEGMENT
??_C@_0BD@EBNJBNP@?$DMREPORT?$DO?6?7?$DMIMAGES?$DO?$AA@ DB '<REPORT>', 0aH
	DB	09H, '<IMAGES>', 00H				; `string'
CONST	ENDS
;	COMDAT ??_C@_0M@JBPIDKPO@SystemDrive?$AA@
CONST	SEGMENT
??_C@_0M@JBPIDKPO@SystemDrive?$AA@ DB 'SystemDrive', 00H ; `string'
CONST	ENDS
;	COMDAT ??_C@_04GEJHDGKP@?4pad?$AA@
CONST	SEGMENT
??_C@_04GEJHDGKP@?4pad?$AA@ DB '.pad', 00H		; `string'
CONST	ENDS
;	COMDAT ??_C@_01JOAMLHOP@?9?$AA@
CONST	SEGMENT
??_C@_01JOAMLHOP@?9?$AA@ DB '-', 00H			; `string'
CONST	ENDS
;	COMDAT ??_C@_0O@IJAHIBEK@?$CFY?$CFm?$CFd?9?$CFH?$CFM?$CFS?$AA@
CONST	SEGMENT
??_C@_0O@IJAHIBEK@?$CFY?$CFm?$CFd?9?$CFH?$CFM?$CFS?$AA@ DB '%Y%m%d-%H%M%S'
	DB	00H						; `string'
CONST	ENDS
;	COMDAT ??_C@_0M@FJFALDBN@C?3?2test?4txt?$AA@
CONST	SEGMENT
??_C@_0M@FJFALDBN@C?3?2test?4txt?$AA@ DB 'C:\test.txt', 00H ; `string'
CONST	ENDS
;	COMDAT ??_C@_01NOFIACDB@w?$AA@
CONST	SEGMENT
??_C@_01NOFIACDB@w?$AA@ DB 'w', 00H			; `string'
CONST	ENDS
;	COMDAT ??_C@_08GNJEIDEM@reports?2?$AA@
CONST	SEGMENT
??_C@_08GNJEIDEM@reports?2?$AA@ DB 'reports\', 00H	; `string'
CONST	ENDS
;	COMDAT ??_C@_02JDPG@rb?$AA@
CONST	SEGMENT
??_C@_02JDPG@rb?$AA@ DB 'rb', 00H			; `string'
CONST	ENDS
;	COMDAT ??_C@_04NOJCDH@?$CF02x?$AA@
CONST	SEGMENT
??_C@_04NOJCDH@?$CF02x?$AA@ DB '%02x', 00H		; `string'
_PADDING DB	080H
	DB	00H
	DB	00H
	DB	00H
	DB	00H
	DB	00H
	DB	00H
	DB	00H
	DB	00H
	DB	00H
	DB	00H
	DB	00H
	DB	00H
	DB	00H
	DB	00H
	DB	00H
	DB	00H
	DB	00H
	DB	00H
	DB	00H
	DB	00H
	DB	00H
	DB	00H
	DB	00H
	DB	00H
	DB	00H
	DB	00H
	DB	00H
	DB	00H
	DB	00H
	DB	00H
	DB	00H
	DB	00H
	DB	00H
	DB	00H
	DB	00H
	DB	00H
	DB	00H
	DB	00H
	DB	00H
	DB	00H
	DB	00H
	DB	00H
	DB	00H
	DB	00H
	DB	00H
	DB	00H
	DB	00H
	DB	00H
	DB	00H
	DB	00H
	DB	00H
	DB	00H
	DB	00H
	DB	00H
	DB	00H
	DB	00H
	DB	00H
	DB	00H
	DB	00H
	DB	00H
	DB	00H
	DB	00H
	DB	00H
;	COMDAT __TI4?AVfailure@ios_base@std@@
xdata$x	SEGMENT
__TI4?AVfailure@ios_base@std@@ DD 00H
	DD	FLAT:??1failure@ios_base@std@@UAE@XZ
	DD	00H
	DD	FLAT:__CTA4?AVfailure@ios_base@std@@
xdata$x	ENDS
;	COMDAT __CTA4?AVfailure@ios_base@std@@
xdata$x	SEGMENT
__CTA4?AVfailure@ios_base@std@@ DD 04H
	DD	FLAT:__CT??_R0?AVfailure@ios_base@std@@@8??0failure@ios_base@std@@QAE@ABV012@@Z20
	DD	FLAT:__CT??_R0?AVsystem_error@std@@@8??0system_error@std@@QAE@ABV01@@Z20
	DD	FLAT:__CT??_R0?AVruntime_error@std@@@8??0runtime_error@std@@QAE@ABV01@@Z12
	DD	FLAT:__CT??_R0?AVexception@std@@@8??0exception@std@@QAE@ABV01@@Z12
xdata$x	ENDS
;	COMDAT __CT??_R0?AVsystem_error@std@@@8??0system_error@std@@QAE@ABV01@@Z20
xdata$x	SEGMENT
__CT??_R0?AVsystem_error@std@@@8??0system_error@std@@QAE@ABV01@@Z20 DD 00H
	DD	FLAT:??_R0?AVsystem_error@std@@@8
	DD	00H
	DD	0ffffffffH
	ORG $+4
	DD	014H
	DD	FLAT:??0system_error@std@@QAE@ABV01@@Z
xdata$x	ENDS
;	COMDAT __CT??_R0?AVfailure@ios_base@std@@@8??0failure@ios_base@std@@QAE@ABV012@@Z20
xdata$x	SEGMENT
__CT??_R0?AVfailure@ios_base@std@@@8??0failure@ios_base@std@@QAE@ABV012@@Z20 DD 00H
	DD	FLAT:??_R0?AVfailure@ios_base@std@@@8
	DD	00H
	DD	0ffffffffH
	ORG $+4
	DD	014H
	DD	FLAT:??0failure@ios_base@std@@QAE@ABV012@@Z
xdata$x	ENDS
;	COMDAT ??_R0?AVsystem_error@std@@@8
_DATA	SEGMENT
??_R0?AVsystem_error@std@@@8 DD FLAT:??_7type_info@@6B@	; std::system_error `RTTI Type Descriptor'
	DD	00H
	DB	'.?AVsystem_error@std@@', 00H
_DATA	ENDS
;	COMDAT ??_R0?AVfailure@ios_base@std@@@8
_DATA	SEGMENT
??_R0?AVfailure@ios_base@std@@@8 DD FLAT:??_7type_info@@6B@ ; std::ios_base::failure `RTTI Type Descriptor'
	DD	00H
	DB	'.?AVfailure@ios_base@std@@', 00H
_DATA	ENDS
;	COMDAT ??_C@_0BF@OOHOMBOF@ios_base?3?3eofbit?5set?$AA@
CONST	SEGMENT
??_C@_0BF@OOHOMBOF@ios_base?3?3eofbit?5set?$AA@ DB 'ios_base::eofbit set', 00H ; `string'
CONST	ENDS
;	COMDAT ??_C@_0BG@FMKFHCIL@ios_base?3?3failbit?5set?$AA@
CONST	SEGMENT
??_C@_0BG@FMKFHCIL@ios_base?3?3failbit?5set?$AA@ DB 'ios_base::failbit se'
	DB	't', 00H					; `string'
CONST	ENDS
;	COMDAT ??_C@_0BF@PHHKMMFD@ios_base?3?3badbit?5set?$AA@
CONST	SEGMENT
??_C@_0BF@PHHKMMFD@ios_base?3?3badbit?5set?$AA@ DB 'ios_base::badbit set', 00H ; `string'
CONST	ENDS
;	COMDAT ?end@?$_Iosb@H@std@@2W4_Seekdir@12@B
CONST	SEGMENT
?end@?$_Iosb@H@std@@2W4_Seekdir@12@B DD 02H		; std::_Iosb<int>::end
CONST	ENDS
;	COMDAT ?cur@?$_Iosb@H@std@@2W4_Seekdir@12@B
CONST	SEGMENT
?cur@?$_Iosb@H@std@@2W4_Seekdir@12@B DD 01H		; std::_Iosb<int>::cur
CONST	ENDS
;	COMDAT ?beg@?$_Iosb@H@std@@2W4_Seekdir@12@B
CONST	SEGMENT
?beg@?$_Iosb@H@std@@2W4_Seekdir@12@B DD 00H		; std::_Iosb<int>::beg
CONST	ENDS
;	COMDAT ?binary@?$_Iosb@H@std@@2W4_Openmode@12@B
CONST	SEGMENT
?binary@?$_Iosb@H@std@@2W4_Openmode@12@B DD 020H	; std::_Iosb<int>::binary
CONST	ENDS
;	COMDAT ?_Noreplace@?$_Iosb@H@std@@2W4_Openmode@12@B
CONST	SEGMENT
?_Noreplace@?$_Iosb@H@std@@2W4_Openmode@12@B DD 080H	; std::_Iosb<int>::_Noreplace
CONST	ENDS
;	COMDAT ?_Nocreate@?$_Iosb@H@std@@2W4_Openmode@12@B
CONST	SEGMENT
?_Nocreate@?$_Iosb@H@std@@2W4_Openmode@12@B DD 040H	; std::_Iosb<int>::_Nocreate
CONST	ENDS
;	COMDAT ?trunc@?$_Iosb@H@std@@2W4_Openmode@12@B
CONST	SEGMENT
?trunc@?$_Iosb@H@std@@2W4_Openmode@12@B DD 010H		; std::_Iosb<int>::trunc
CONST	ENDS
;	COMDAT ?app@?$_Iosb@H@std@@2W4_Openmode@12@B
CONST	SEGMENT
?app@?$_Iosb@H@std@@2W4_Openmode@12@B DD 08H		; std::_Iosb<int>::app
CONST	ENDS
;	COMDAT ?ate@?$_Iosb@H@std@@2W4_Openmode@12@B
CONST	SEGMENT
?ate@?$_Iosb@H@std@@2W4_Openmode@12@B DD 04H		; std::_Iosb<int>::ate
CONST	ENDS
;	COMDAT ?out@?$_Iosb@H@std@@2W4_Openmode@12@B
CONST	SEGMENT
?out@?$_Iosb@H@std@@2W4_Openmode@12@B DD 02H		; std::_Iosb<int>::out
CONST	ENDS
;	COMDAT ?in@?$_Iosb@H@std@@2W4_Openmode@12@B
CONST	SEGMENT
?in@?$_Iosb@H@std@@2W4_Openmode@12@B DD 01H		; std::_Iosb<int>::in
CONST	ENDS
;	COMDAT ?_Hardfail@?$_Iosb@H@std@@2W4_Iostate@12@B
CONST	SEGMENT
?_Hardfail@?$_Iosb@H@std@@2W4_Iostate@12@B DD 010H	; std::_Iosb<int>::_Hardfail
CONST	ENDS
;	COMDAT ?badbit@?$_Iosb@H@std@@2W4_Iostate@12@B
CONST	SEGMENT
?badbit@?$_Iosb@H@std@@2W4_Iostate@12@B DD 04H		; std::_Iosb<int>::badbit
CONST	ENDS
;	COMDAT ?failbit@?$_Iosb@H@std@@2W4_Iostate@12@B
CONST	SEGMENT
?failbit@?$_Iosb@H@std@@2W4_Iostate@12@B DD 02H		; std::_Iosb<int>::failbit
CONST	ENDS
;	COMDAT ?eofbit@?$_Iosb@H@std@@2W4_Iostate@12@B
CONST	SEGMENT
?eofbit@?$_Iosb@H@std@@2W4_Iostate@12@B DD 01H		; std::_Iosb<int>::eofbit
CONST	ENDS
;	COMDAT ?goodbit@?$_Iosb@H@std@@2W4_Iostate@12@B
CONST	SEGMENT
?goodbit@?$_Iosb@H@std@@2W4_Iostate@12@B DD 00H		; std::_Iosb<int>::goodbit
CONST	ENDS
;	COMDAT ?floatfield@?$_Iosb@H@std@@2W4_Fmtflags@12@B
CONST	SEGMENT
?floatfield@?$_Iosb@H@std@@2W4_Fmtflags@12@B DD 03000H	; std::_Iosb<int>::floatfield
CONST	ENDS
;	COMDAT ?basefield@?$_Iosb@H@std@@2W4_Fmtflags@12@B
CONST	SEGMENT
?basefield@?$_Iosb@H@std@@2W4_Fmtflags@12@B DD 0e00H	; std::_Iosb<int>::basefield
CONST	ENDS
;	COMDAT ?adjustfield@?$_Iosb@H@std@@2W4_Fmtflags@12@B
CONST	SEGMENT
?adjustfield@?$_Iosb@H@std@@2W4_Fmtflags@12@B DD 01c0H	; std::_Iosb<int>::adjustfield
CONST	ENDS
;	COMDAT ?_Stdio@?$_Iosb@H@std@@2W4_Fmtflags@12@B
CONST	SEGMENT
?_Stdio@?$_Iosb@H@std@@2W4_Fmtflags@12@B DD 08000H	; std::_Iosb<int>::_Stdio
CONST	ENDS
;	COMDAT ?boolalpha@?$_Iosb@H@std@@2W4_Fmtflags@12@B
CONST	SEGMENT
?boolalpha@?$_Iosb@H@std@@2W4_Fmtflags@12@B DD 04000H	; std::_Iosb<int>::boolalpha
CONST	ENDS
;	COMDAT ?hexfloat@?$_Iosb@H@std@@2W4_Fmtflags@12@B
CONST	SEGMENT
?hexfloat@?$_Iosb@H@std@@2W4_Fmtflags@12@B DD 03000H	; std::_Iosb<int>::hexfloat
CONST	ENDS
;	COMDAT ?fixed@?$_Iosb@H@std@@2W4_Fmtflags@12@B
CONST	SEGMENT
?fixed@?$_Iosb@H@std@@2W4_Fmtflags@12@B DD 02000H	; std::_Iosb<int>::fixed
CONST	ENDS
;	COMDAT ?scientific@?$_Iosb@H@std@@2W4_Fmtflags@12@B
CONST	SEGMENT
?scientific@?$_Iosb@H@std@@2W4_Fmtflags@12@B DD 01000H	; std::_Iosb<int>::scientific
CONST	ENDS
;	COMDAT ?hex@?$_Iosb@H@std@@2W4_Fmtflags@12@B
CONST	SEGMENT
?hex@?$_Iosb@H@std@@2W4_Fmtflags@12@B DD 0800H		; std::_Iosb<int>::hex
CONST	ENDS
;	COMDAT ?oct@?$_Iosb@H@std@@2W4_Fmtflags@12@B
CONST	SEGMENT
?oct@?$_Iosb@H@std@@2W4_Fmtflags@12@B DD 0400H		; std::_Iosb<int>::oct
CONST	ENDS
;	COMDAT ?dec@?$_Iosb@H@std@@2W4_Fmtflags@12@B
CONST	SEGMENT
?dec@?$_Iosb@H@std@@2W4_Fmtflags@12@B DD 0200H		; std::_Iosb<int>::dec
CONST	ENDS
;	COMDAT ?internal@?$_Iosb@H@std@@2W4_Fmtflags@12@B
CONST	SEGMENT
?internal@?$_Iosb@H@std@@2W4_Fmtflags@12@B DD 0100H	; std::_Iosb<int>::internal
CONST	ENDS
;	COMDAT ?right@?$_Iosb@H@std@@2W4_Fmtflags@12@B
CONST	SEGMENT
?right@?$_Iosb@H@std@@2W4_Fmtflags@12@B DD 080H		; std::_Iosb<int>::right
CONST	ENDS
;	COMDAT ?left@?$_Iosb@H@std@@2W4_Fmtflags@12@B
CONST	SEGMENT
?left@?$_Iosb@H@std@@2W4_Fmtflags@12@B DD 040H		; std::_Iosb<int>::left
CONST	ENDS
;	COMDAT ?showpos@?$_Iosb@H@std@@2W4_Fmtflags@12@B
CONST	SEGMENT
?showpos@?$_Iosb@H@std@@2W4_Fmtflags@12@B DD 020H	; std::_Iosb<int>::showpos
CONST	ENDS
;	COMDAT ?showpoint@?$_Iosb@H@std@@2W4_Fmtflags@12@B
CONST	SEGMENT
?showpoint@?$_Iosb@H@std@@2W4_Fmtflags@12@B DD 010H	; std::_Iosb<int>::showpoint
CONST	ENDS
;	COMDAT ?showbase@?$_Iosb@H@std@@2W4_Fmtflags@12@B
CONST	SEGMENT
?showbase@?$_Iosb@H@std@@2W4_Fmtflags@12@B DD 08H	; std::_Iosb<int>::showbase
CONST	ENDS
;	COMDAT ?uppercase@?$_Iosb@H@std@@2W4_Fmtflags@12@B
CONST	SEGMENT
?uppercase@?$_Iosb@H@std@@2W4_Fmtflags@12@B DD 04H	; std::_Iosb<int>::uppercase
CONST	ENDS
;	COMDAT ?unitbuf@?$_Iosb@H@std@@2W4_Fmtflags@12@B
CONST	SEGMENT
?unitbuf@?$_Iosb@H@std@@2W4_Fmtflags@12@B DD 02H	; std::_Iosb<int>::unitbuf
CONST	ENDS
;	COMDAT ?skipws@?$_Iosb@H@std@@2W4_Fmtflags@12@B
CONST	SEGMENT
?skipws@?$_Iosb@H@std@@2W4_Fmtflags@12@B DD 01H		; std::_Iosb<int>::skipws
CONST	ENDS
;	COMDAT ?table_size@?$ctype@D@std@@2IB
CONST	SEGMENT
?table_size@?$ctype@D@std@@2IB DD 0100H			; std::ctype<char>::table_size
CONST	ENDS
;	COMDAT ?none@?$_Locbase@H@std@@2HB
CONST	SEGMENT
?none@?$_Locbase@H@std@@2HB DD 00H			; std::_Locbase<int>::none
CONST	ENDS
;	COMDAT ?all@?$_Locbase@H@std@@2HB
CONST	SEGMENT
?all@?$_Locbase@H@std@@2HB DD 03fH			; std::_Locbase<int>::all
CONST	ENDS
;	COMDAT ?messages@?$_Locbase@H@std@@2HB
CONST	SEGMENT
?messages@?$_Locbase@H@std@@2HB DD 020H			; std::_Locbase<int>::messages
CONST	ENDS
;	COMDAT ?time@?$_Locbase@H@std@@2HB
CONST	SEGMENT
?time@?$_Locbase@H@std@@2HB DD 010H			; std::_Locbase<int>::time
CONST	ENDS
;	COMDAT ?numeric@?$_Locbase@H@std@@2HB
CONST	SEGMENT
?numeric@?$_Locbase@H@std@@2HB DD 08H			; std::_Locbase<int>::numeric
CONST	ENDS
;	COMDAT ?monetary@?$_Locbase@H@std@@2HB
CONST	SEGMENT
?monetary@?$_Locbase@H@std@@2HB DD 04H			; std::_Locbase<int>::monetary
CONST	ENDS
;	COMDAT ?ctype@?$_Locbase@H@std@@2HB
CONST	SEGMENT
?ctype@?$_Locbase@H@std@@2HB DD 02H			; std::_Locbase<int>::ctype
CONST	ENDS
;	COMDAT ?collate@?$_Locbase@H@std@@2HB
CONST	SEGMENT
?collate@?$_Locbase@H@std@@2HB DD 01H			; std::_Locbase<int>::collate
CONST	ENDS
;	COMDAT ??_C@_04LOAJBDKD@true?$AA@
CONST	SEGMENT
??_C@_04LOAJBDKD@true?$AA@ DB 'true', 00H		; `string'
CONST	ENDS
;	COMDAT ??_C@_05LAPONLG@false?$AA@
CONST	SEGMENT
??_C@_05LAPONLG@false?$AA@ DB 'false', 00H		; `string'
CONST	ENDS
;	COMDAT __TI2?AVruntime_error@std@@
xdata$x	SEGMENT
__TI2?AVruntime_error@std@@ DD 00H
	DD	FLAT:??1runtime_error@std@@UAE@XZ
	DD	00H
	DD	FLAT:__CTA2?AVruntime_error@std@@
xdata$x	ENDS
;	COMDAT __CTA2?AVruntime_error@std@@
xdata$x	SEGMENT
__CTA2?AVruntime_error@std@@ DD 02H
	DD	FLAT:__CT??_R0?AVruntime_error@std@@@8??0runtime_error@std@@QAE@ABV01@@Z12
	DD	FLAT:__CT??_R0?AVexception@std@@@8??0exception@std@@QAE@ABV01@@Z12
xdata$x	ENDS
;	COMDAT __CT??_R0?AVexception@std@@@8??0exception@std@@QAE@ABV01@@Z12
xdata$x	SEGMENT
__CT??_R0?AVexception@std@@@8??0exception@std@@QAE@ABV01@@Z12 DD 00H
	DD	FLAT:??_R0?AVexception@std@@@8
	DD	00H
	DD	0ffffffffH
	ORG $+4
	DD	0cH
	DD	FLAT:??0exception@std@@QAE@ABV01@@Z
xdata$x	ENDS
;	COMDAT __CT??_R0?AVruntime_error@std@@@8??0runtime_error@std@@QAE@ABV01@@Z12
xdata$x	SEGMENT
__CT??_R0?AVruntime_error@std@@@8??0runtime_error@std@@QAE@ABV01@@Z12 DD 00H
	DD	FLAT:??_R0?AVruntime_error@std@@@8
	DD	00H
	DD	0ffffffffH
	ORG $+4
	DD	0cH
	DD	FLAT:??0runtime_error@std@@QAE@ABV01@@Z
xdata$x	ENDS
;	COMDAT ??_R0?AVexception@std@@@8
_DATA	SEGMENT
??_R0?AVexception@std@@@8 DD FLAT:??_7type_info@@6B@	; std::exception `RTTI Type Descriptor'
	DD	00H
	DB	'.?AVexception@std@@', 00H
_DATA	ENDS
;	COMDAT ??_R0?AVruntime_error@std@@@8
_DATA	SEGMENT
??_R0?AVruntime_error@std@@@8 DD FLAT:??_7type_info@@6B@ ; std::runtime_error `RTTI Type Descriptor'
	DD	00H
	DB	'.?AVruntime_error@std@@', 00H
_DATA	ENDS
;	COMDAT ??_C@_0BA@ELKIONDK@bad?5locale?5name?$AA@
CONST	SEGMENT
??_C@_0BA@ELKIONDK@bad?5locale?5name?$AA@ DB 'bad locale name', 00H ; `string'
CONST	ENDS
;	COMDAT ?_Rank@?$_Arithmetic_traits@O@std@@2HB
CONST	SEGMENT
?_Rank@?$_Arithmetic_traits@O@std@@2HB DD 09H		; std::_Arithmetic_traits<long double>::_Rank
CONST	ENDS
;	COMDAT ?_Rank@?$_Arithmetic_traits@N@std@@2HB
CONST	SEGMENT
?_Rank@?$_Arithmetic_traits@N@std@@2HB DD 08H		; std::_Arithmetic_traits<double>::_Rank
CONST	ENDS
;	COMDAT ?_Rank@?$_Arithmetic_traits@M@std@@2HB
CONST	SEGMENT
?_Rank@?$_Arithmetic_traits@M@std@@2HB DD 07H		; std::_Arithmetic_traits<float>::_Rank
CONST	ENDS
;	COMDAT ?_Rank@?$_Arithmetic_traits@_K@std@@2HB
CONST	SEGMENT
?_Rank@?$_Arithmetic_traits@_K@std@@2HB DD 06H		; std::_Arithmetic_traits<unsigned __int64>::_Rank
CONST	ENDS
;	COMDAT ?_Rank@?$_Arithmetic_traits@_J@std@@2HB
CONST	SEGMENT
?_Rank@?$_Arithmetic_traits@_J@std@@2HB DD 06H		; std::_Arithmetic_traits<__int64>::_Rank
CONST	ENDS
;	COMDAT ?_Rank@?$_Arithmetic_traits@K@std@@2HB
CONST	SEGMENT
?_Rank@?$_Arithmetic_traits@K@std@@2HB DD 05H		; std::_Arithmetic_traits<unsigned long>::_Rank
CONST	ENDS
;	COMDAT ?_Rank@?$_Arithmetic_traits@J@std@@2HB
CONST	SEGMENT
?_Rank@?$_Arithmetic_traits@J@std@@2HB DD 05H		; std::_Arithmetic_traits<long>::_Rank
CONST	ENDS
;	COMDAT ?_Rank@?$_Arithmetic_traits@I@std@@2HB
CONST	SEGMENT
?_Rank@?$_Arithmetic_traits@I@std@@2HB DD 04H		; std::_Arithmetic_traits<unsigned int>::_Rank
CONST	ENDS
;	COMDAT ?_Rank@?$_Arithmetic_traits@H@std@@2HB
CONST	SEGMENT
?_Rank@?$_Arithmetic_traits@H@std@@2HB DD 04H		; std::_Arithmetic_traits<int>::_Rank
CONST	ENDS
;	COMDAT ?_Rank@?$_Arithmetic_traits@G@std@@2HB
CONST	SEGMENT
?_Rank@?$_Arithmetic_traits@G@std@@2HB DD 03H		; std::_Arithmetic_traits<unsigned short>::_Rank
CONST	ENDS
;	COMDAT ?_Rank@?$_Arithmetic_traits@F@std@@2HB
CONST	SEGMENT
?_Rank@?$_Arithmetic_traits@F@std@@2HB DD 03H		; std::_Arithmetic_traits<short>::_Rank
CONST	ENDS
;	COMDAT ?_Rank@?$_Arithmetic_traits@E@std@@2HB
CONST	SEGMENT
?_Rank@?$_Arithmetic_traits@E@std@@2HB DD 02H		; std::_Arithmetic_traits<unsigned char>::_Rank
CONST	ENDS
;	COMDAT ?_Rank@?$_Arithmetic_traits@C@std@@2HB
CONST	SEGMENT
?_Rank@?$_Arithmetic_traits@C@std@@2HB DD 02H		; std::_Arithmetic_traits<signed char>::_Rank
CONST	ENDS
;	COMDAT ?_Rank@?$_Arithmetic_traits@D@std@@2HB
CONST	SEGMENT
?_Rank@?$_Arithmetic_traits@D@std@@2HB DD 02H		; std::_Arithmetic_traits<char>::_Rank
CONST	ENDS
;	COMDAT ?_Rank@?$_Arithmetic_traits@_N@std@@2HB
CONST	SEGMENT
?_Rank@?$_Arithmetic_traits@_N@std@@2HB DD 01H		; std::_Arithmetic_traits<bool>::_Rank
CONST	ENDS
;	COMDAT ?value@?$integral_constant@I$0A@@tr1@std@@2IB
CONST	SEGMENT
?value@?$integral_constant@I$0A@@tr1@std@@2IB DD 00H	; std::tr1::integral_constant<unsigned int,0>::value
CONST	ENDS
;	COMDAT ?value@?$integral_constant@_N$00@tr1@std@@2_NB
CONST	SEGMENT
?value@?$integral_constant@_N$00@tr1@std@@2_NB DB 01H	; std::tr1::integral_constant<bool,1>::value
CONST	ENDS
;	COMDAT ?value@?$integral_constant@_N$0A@@tr1@std@@2_NB
CONST	SEGMENT
?value@?$integral_constant@_N$0A@@tr1@std@@2_NB DB 00H	; std::tr1::integral_constant<bool,0>::value
CONST	ENDS
;	COMDAT ?min_exponent10@?$numeric_limits@O@std@@2HB
CONST	SEGMENT
?min_exponent10@?$numeric_limits@O@std@@2HB DD 0fffffecdH ; std::numeric_limits<long double>::min_exponent10
CONST	ENDS
;	COMDAT ?min_exponent@?$numeric_limits@O@std@@2HB
CONST	SEGMENT
?min_exponent@?$numeric_limits@O@std@@2HB DD 0fffffc03H	; std::numeric_limits<long double>::min_exponent
CONST	ENDS
;	COMDAT ?max_exponent10@?$numeric_limits@O@std@@2HB
CONST	SEGMENT
?max_exponent10@?$numeric_limits@O@std@@2HB DD 0134H	; std::numeric_limits<long double>::max_exponent10
CONST	ENDS
;	COMDAT ?max_exponent@?$numeric_limits@O@std@@2HB
CONST	SEGMENT
?max_exponent@?$numeric_limits@O@std@@2HB DD 0400H	; std::numeric_limits<long double>::max_exponent
CONST	ENDS
;	COMDAT ?max_digits10@?$numeric_limits@O@std@@2HB
CONST	SEGMENT
?max_digits10@?$numeric_limits@O@std@@2HB DD 011H	; std::numeric_limits<long double>::max_digits10
CONST	ENDS
;	COMDAT ?digits10@?$numeric_limits@O@std@@2HB
CONST	SEGMENT
?digits10@?$numeric_limits@O@std@@2HB DD 0fH		; std::numeric_limits<long double>::digits10
CONST	ENDS
;	COMDAT ?digits@?$numeric_limits@O@std@@2HB
CONST	SEGMENT
?digits@?$numeric_limits@O@std@@2HB DD 035H		; std::numeric_limits<long double>::digits
CONST	ENDS
;	COMDAT ?min_exponent10@?$numeric_limits@N@std@@2HB
CONST	SEGMENT
?min_exponent10@?$numeric_limits@N@std@@2HB DD 0fffffecdH ; std::numeric_limits<double>::min_exponent10
CONST	ENDS
;	COMDAT ?min_exponent@?$numeric_limits@N@std@@2HB
CONST	SEGMENT
?min_exponent@?$numeric_limits@N@std@@2HB DD 0fffffc03H	; std::numeric_limits<double>::min_exponent
CONST	ENDS
;	COMDAT ?max_exponent10@?$numeric_limits@N@std@@2HB
CONST	SEGMENT
?max_exponent10@?$numeric_limits@N@std@@2HB DD 0134H	; std::numeric_limits<double>::max_exponent10
CONST	ENDS
;	COMDAT ?max_exponent@?$numeric_limits@N@std@@2HB
CONST	SEGMENT
?max_exponent@?$numeric_limits@N@std@@2HB DD 0400H	; std::numeric_limits<double>::max_exponent
CONST	ENDS
;	COMDAT ?max_digits10@?$numeric_limits@N@std@@2HB
CONST	SEGMENT
?max_digits10@?$numeric_limits@N@std@@2HB DD 011H	; std::numeric_limits<double>::max_digits10
CONST	ENDS
;	COMDAT ?digits10@?$numeric_limits@N@std@@2HB
CONST	SEGMENT
?digits10@?$numeric_limits@N@std@@2HB DD 0fH		; std::numeric_limits<double>::digits10
CONST	ENDS
;	COMDAT ?digits@?$numeric_limits@N@std@@2HB
CONST	SEGMENT
?digits@?$numeric_limits@N@std@@2HB DD 035H		; std::numeric_limits<double>::digits
CONST	ENDS
;	COMDAT ?min_exponent10@?$numeric_limits@M@std@@2HB
CONST	SEGMENT
?min_exponent10@?$numeric_limits@M@std@@2HB DD 0ffffffdbH ; std::numeric_limits<float>::min_exponent10
CONST	ENDS
;	COMDAT ?min_exponent@?$numeric_limits@M@std@@2HB
CONST	SEGMENT
?min_exponent@?$numeric_limits@M@std@@2HB DD 0ffffff83H	; std::numeric_limits<float>::min_exponent
CONST	ENDS
;	COMDAT ?max_exponent10@?$numeric_limits@M@std@@2HB
CONST	SEGMENT
?max_exponent10@?$numeric_limits@M@std@@2HB DD 026H	; std::numeric_limits<float>::max_exponent10
CONST	ENDS
;	COMDAT ?max_exponent@?$numeric_limits@M@std@@2HB
CONST	SEGMENT
?max_exponent@?$numeric_limits@M@std@@2HB DD 080H	; std::numeric_limits<float>::max_exponent
CONST	ENDS
;	COMDAT ?max_digits10@?$numeric_limits@M@std@@2HB
CONST	SEGMENT
?max_digits10@?$numeric_limits@M@std@@2HB DD 08H	; std::numeric_limits<float>::max_digits10
CONST	ENDS
;	COMDAT ?digits10@?$numeric_limits@M@std@@2HB
CONST	SEGMENT
?digits10@?$numeric_limits@M@std@@2HB DD 06H		; std::numeric_limits<float>::digits10
CONST	ENDS
;	COMDAT ?digits@?$numeric_limits@M@std@@2HB
CONST	SEGMENT
?digits@?$numeric_limits@M@std@@2HB DD 018H		; std::numeric_limits<float>::digits
CONST	ENDS
;	COMDAT ?max_digits10@?$numeric_limits@_K@std@@2HB
CONST	SEGMENT
?max_digits10@?$numeric_limits@_K@std@@2HB DD 015H	; std::numeric_limits<unsigned __int64>::max_digits10
CONST	ENDS
;	COMDAT ?digits10@?$numeric_limits@_K@std@@2HB
CONST	SEGMENT
?digits10@?$numeric_limits@_K@std@@2HB DD 013H		; std::numeric_limits<unsigned __int64>::digits10
CONST	ENDS
;	COMDAT ?digits@?$numeric_limits@_K@std@@2HB
CONST	SEGMENT
?digits@?$numeric_limits@_K@std@@2HB DD 040H		; std::numeric_limits<unsigned __int64>::digits
CONST	ENDS
;	COMDAT ?is_signed@?$numeric_limits@_K@std@@2_NB
CONST	SEGMENT
?is_signed@?$numeric_limits@_K@std@@2_NB DB 00H		; std::numeric_limits<unsigned __int64>::is_signed
CONST	ENDS
;	COMDAT ?max_digits10@?$numeric_limits@_J@std@@2HB
CONST	SEGMENT
?max_digits10@?$numeric_limits@_J@std@@2HB DD 014H	; std::numeric_limits<__int64>::max_digits10
CONST	ENDS
;	COMDAT ?digits10@?$numeric_limits@_J@std@@2HB
CONST	SEGMENT
?digits10@?$numeric_limits@_J@std@@2HB DD 012H		; std::numeric_limits<__int64>::digits10
CONST	ENDS
;	COMDAT ?digits@?$numeric_limits@_J@std@@2HB
CONST	SEGMENT
?digits@?$numeric_limits@_J@std@@2HB DD 03fH		; std::numeric_limits<__int64>::digits
CONST	ENDS
;	COMDAT ?is_signed@?$numeric_limits@_J@std@@2_NB
CONST	SEGMENT
?is_signed@?$numeric_limits@_J@std@@2_NB DB 01H		; std::numeric_limits<__int64>::is_signed
CONST	ENDS
;	COMDAT ?max_digits10@?$numeric_limits@K@std@@2HB
CONST	SEGMENT
?max_digits10@?$numeric_limits@K@std@@2HB DD 0bH	; std::numeric_limits<unsigned long>::max_digits10
CONST	ENDS
;	COMDAT ?digits10@?$numeric_limits@K@std@@2HB
CONST	SEGMENT
?digits10@?$numeric_limits@K@std@@2HB DD 09H		; std::numeric_limits<unsigned long>::digits10
CONST	ENDS
;	COMDAT ?digits@?$numeric_limits@K@std@@2HB
CONST	SEGMENT
?digits@?$numeric_limits@K@std@@2HB DD 020H		; std::numeric_limits<unsigned long>::digits
CONST	ENDS
;	COMDAT ?is_signed@?$numeric_limits@K@std@@2_NB
CONST	SEGMENT
?is_signed@?$numeric_limits@K@std@@2_NB DB 00H		; std::numeric_limits<unsigned long>::is_signed
CONST	ENDS
;	COMDAT ?max_digits10@?$numeric_limits@J@std@@2HB
CONST	SEGMENT
?max_digits10@?$numeric_limits@J@std@@2HB DD 0bH	; std::numeric_limits<long>::max_digits10
CONST	ENDS
;	COMDAT ?digits10@?$numeric_limits@J@std@@2HB
CONST	SEGMENT
?digits10@?$numeric_limits@J@std@@2HB DD 09H		; std::numeric_limits<long>::digits10
CONST	ENDS
;	COMDAT ?digits@?$numeric_limits@J@std@@2HB
CONST	SEGMENT
?digits@?$numeric_limits@J@std@@2HB DD 01fH		; std::numeric_limits<long>::digits
CONST	ENDS
;	COMDAT ?is_signed@?$numeric_limits@J@std@@2_NB
CONST	SEGMENT
?is_signed@?$numeric_limits@J@std@@2_NB DB 01H		; std::numeric_limits<long>::is_signed
CONST	ENDS
;	COMDAT ?max_digits10@?$numeric_limits@I@std@@2HB
CONST	SEGMENT
?max_digits10@?$numeric_limits@I@std@@2HB DD 0bH	; std::numeric_limits<unsigned int>::max_digits10
CONST	ENDS
;	COMDAT ?digits10@?$numeric_limits@I@std@@2HB
CONST	SEGMENT
?digits10@?$numeric_limits@I@std@@2HB DD 09H		; std::numeric_limits<unsigned int>::digits10
CONST	ENDS
;	COMDAT ?digits@?$numeric_limits@I@std@@2HB
CONST	SEGMENT
?digits@?$numeric_limits@I@std@@2HB DD 020H		; std::numeric_limits<unsigned int>::digits
CONST	ENDS
;	COMDAT ?is_signed@?$numeric_limits@I@std@@2_NB
CONST	SEGMENT
?is_signed@?$numeric_limits@I@std@@2_NB DB 00H		; std::numeric_limits<unsigned int>::is_signed
CONST	ENDS
;	COMDAT ?max_digits10@?$numeric_limits@H@std@@2HB
CONST	SEGMENT
?max_digits10@?$numeric_limits@H@std@@2HB DD 0bH	; std::numeric_limits<int>::max_digits10
CONST	ENDS
;	COMDAT ?digits10@?$numeric_limits@H@std@@2HB
CONST	SEGMENT
?digits10@?$numeric_limits@H@std@@2HB DD 09H		; std::numeric_limits<int>::digits10
CONST	ENDS
;	COMDAT ?digits@?$numeric_limits@H@std@@2HB
CONST	SEGMENT
?digits@?$numeric_limits@H@std@@2HB DD 01fH		; std::numeric_limits<int>::digits
CONST	ENDS
;	COMDAT ?is_signed@?$numeric_limits@H@std@@2_NB
CONST	SEGMENT
?is_signed@?$numeric_limits@H@std@@2_NB DB 01H		; std::numeric_limits<int>::is_signed
CONST	ENDS
;	COMDAT ?max_digits10@?$numeric_limits@G@std@@2HB
CONST	SEGMENT
?max_digits10@?$numeric_limits@G@std@@2HB DD 06H	; std::numeric_limits<unsigned short>::max_digits10
CONST	ENDS
;	COMDAT ?digits10@?$numeric_limits@G@std@@2HB
CONST	SEGMENT
?digits10@?$numeric_limits@G@std@@2HB DD 04H		; std::numeric_limits<unsigned short>::digits10
CONST	ENDS
;	COMDAT ?digits@?$numeric_limits@G@std@@2HB
CONST	SEGMENT
?digits@?$numeric_limits@G@std@@2HB DD 010H		; std::numeric_limits<unsigned short>::digits
CONST	ENDS
;	COMDAT ?is_signed@?$numeric_limits@G@std@@2_NB
CONST	SEGMENT
?is_signed@?$numeric_limits@G@std@@2_NB DB 00H		; std::numeric_limits<unsigned short>::is_signed
CONST	ENDS
;	COMDAT ?max_digits10@?$numeric_limits@F@std@@2HB
CONST	SEGMENT
?max_digits10@?$numeric_limits@F@std@@2HB DD 06H	; std::numeric_limits<short>::max_digits10
CONST	ENDS
;	COMDAT ?digits10@?$numeric_limits@F@std@@2HB
CONST	SEGMENT
?digits10@?$numeric_limits@F@std@@2HB DD 04H		; std::numeric_limits<short>::digits10
CONST	ENDS
;	COMDAT ?digits@?$numeric_limits@F@std@@2HB
CONST	SEGMENT
?digits@?$numeric_limits@F@std@@2HB DD 0fH		; std::numeric_limits<short>::digits
CONST	ENDS
;	COMDAT ?is_signed@?$numeric_limits@F@std@@2_NB
CONST	SEGMENT
?is_signed@?$numeric_limits@F@std@@2_NB DB 01H		; std::numeric_limits<short>::is_signed
CONST	ENDS
;	COMDAT ?max_digits10@?$numeric_limits@E@std@@2HB
CONST	SEGMENT
?max_digits10@?$numeric_limits@E@std@@2HB DD 04H	; std::numeric_limits<unsigned char>::max_digits10
CONST	ENDS
;	COMDAT ?digits10@?$numeric_limits@E@std@@2HB
CONST	SEGMENT
?digits10@?$numeric_limits@E@std@@2HB DD 02H		; std::numeric_limits<unsigned char>::digits10
CONST	ENDS
;	COMDAT ?digits@?$numeric_limits@E@std@@2HB
CONST	SEGMENT
?digits@?$numeric_limits@E@std@@2HB DD 08H		; std::numeric_limits<unsigned char>::digits
CONST	ENDS
;	COMDAT ?is_signed@?$numeric_limits@E@std@@2_NB
CONST	SEGMENT
?is_signed@?$numeric_limits@E@std@@2_NB DB 00H		; std::numeric_limits<unsigned char>::is_signed
CONST	ENDS
;	COMDAT ?max_digits10@?$numeric_limits@C@std@@2HB
CONST	SEGMENT
?max_digits10@?$numeric_limits@C@std@@2HB DD 04H	; std::numeric_limits<signed char>::max_digits10
CONST	ENDS
;	COMDAT ?digits10@?$numeric_limits@C@std@@2HB
CONST	SEGMENT
?digits10@?$numeric_limits@C@std@@2HB DD 02H		; std::numeric_limits<signed char>::digits10
CONST	ENDS
;	COMDAT ?digits@?$numeric_limits@C@std@@2HB
CONST	SEGMENT
?digits@?$numeric_limits@C@std@@2HB DD 07H		; std::numeric_limits<signed char>::digits
CONST	ENDS
;	COMDAT ?is_signed@?$numeric_limits@C@std@@2_NB
CONST	SEGMENT
?is_signed@?$numeric_limits@C@std@@2_NB DB 01H		; std::numeric_limits<signed char>::is_signed
CONST	ENDS
;	COMDAT ?max_digits10@?$numeric_limits@_N@std@@2HB
CONST	SEGMENT
?max_digits10@?$numeric_limits@_N@std@@2HB DD 00H	; std::numeric_limits<bool>::max_digits10
CONST	ENDS
;	COMDAT ?digits10@?$numeric_limits@_N@std@@2HB
CONST	SEGMENT
?digits10@?$numeric_limits@_N@std@@2HB DD 00H		; std::numeric_limits<bool>::digits10
CONST	ENDS
;	COMDAT ?digits@?$numeric_limits@_N@std@@2HB
CONST	SEGMENT
?digits@?$numeric_limits@_N@std@@2HB DD 01H		; std::numeric_limits<bool>::digits
CONST	ENDS
;	COMDAT ?is_signed@?$numeric_limits@_N@std@@2_NB
CONST	SEGMENT
?is_signed@?$numeric_limits@_N@std@@2_NB DB 00H		; std::numeric_limits<bool>::is_signed
CONST	ENDS
;	COMDAT ?is_modulo@?$numeric_limits@_N@std@@2_NB
CONST	SEGMENT
?is_modulo@?$numeric_limits@_N@std@@2_NB DB 00H		; std::numeric_limits<bool>::is_modulo
CONST	ENDS
;	COMDAT ?max_digits10@?$numeric_limits@_W@std@@2HB
CONST	SEGMENT
?max_digits10@?$numeric_limits@_W@std@@2HB DD 06H	; std::numeric_limits<wchar_t>::max_digits10
CONST	ENDS
;	COMDAT ?digits10@?$numeric_limits@_W@std@@2HB
CONST	SEGMENT
?digits10@?$numeric_limits@_W@std@@2HB DD 04H		; std::numeric_limits<wchar_t>::digits10
CONST	ENDS
;	COMDAT ?digits@?$numeric_limits@_W@std@@2HB
CONST	SEGMENT
?digits@?$numeric_limits@_W@std@@2HB DD 010H		; std::numeric_limits<wchar_t>::digits
CONST	ENDS
;	COMDAT ?is_signed@?$numeric_limits@_W@std@@2_NB
CONST	SEGMENT
?is_signed@?$numeric_limits@_W@std@@2_NB DB 00H		; std::numeric_limits<wchar_t>::is_signed
CONST	ENDS
;	COMDAT ?max_digits10@?$numeric_limits@D@std@@2HB
CONST	SEGMENT
?max_digits10@?$numeric_limits@D@std@@2HB DD 04H	; std::numeric_limits<char>::max_digits10
CONST	ENDS
;	COMDAT ?digits10@?$numeric_limits@D@std@@2HB
CONST	SEGMENT
?digits10@?$numeric_limits@D@std@@2HB DD 02H		; std::numeric_limits<char>::digits10
CONST	ENDS
;	COMDAT ?digits@?$numeric_limits@D@std@@2HB
CONST	SEGMENT
?digits@?$numeric_limits@D@std@@2HB DD 07H		; std::numeric_limits<char>::digits
CONST	ENDS
;	COMDAT ?is_signed@?$numeric_limits@D@std@@2_NB
CONST	SEGMENT
?is_signed@?$numeric_limits@D@std@@2_NB DB 01H		; std::numeric_limits<char>::is_signed
CONST	ENDS
;	COMDAT ?radix@_Num_float_base@std@@2HB
CONST	SEGMENT
?radix@_Num_float_base@std@@2HB DD 02H			; std::_Num_float_base::radix
CONST	ENDS
;	COMDAT ?round_style@_Num_float_base@std@@2W4float_round_style@2@B
CONST	SEGMENT
?round_style@_Num_float_base@std@@2W4float_round_style@2@B DD 01H ; std::_Num_float_base::round_style
CONST	ENDS
;	COMDAT ?traps@_Num_float_base@std@@2_NB
CONST	SEGMENT
?traps@_Num_float_base@std@@2_NB DB 01H			; std::_Num_float_base::traps
CONST	ENDS
;	COMDAT ?tinyness_before@_Num_float_base@std@@2_NB
CONST	SEGMENT
?tinyness_before@_Num_float_base@std@@2_NB DB 01H	; std::_Num_float_base::tinyness_before
CONST	ENDS
;	COMDAT ?is_specialized@_Num_float_base@std@@2_NB
CONST	SEGMENT
?is_specialized@_Num_float_base@std@@2_NB DB 01H	; std::_Num_float_base::is_specialized
CONST	ENDS
;	COMDAT ?is_signed@_Num_float_base@std@@2_NB
CONST	SEGMENT
?is_signed@_Num_float_base@std@@2_NB DB 01H		; std::_Num_float_base::is_signed
CONST	ENDS
;	COMDAT ?is_modulo@_Num_float_base@std@@2_NB
CONST	SEGMENT
?is_modulo@_Num_float_base@std@@2_NB DB 00H		; std::_Num_float_base::is_modulo
CONST	ENDS
;	COMDAT ?is_integer@_Num_float_base@std@@2_NB
CONST	SEGMENT
?is_integer@_Num_float_base@std@@2_NB DB 00H		; std::_Num_float_base::is_integer
CONST	ENDS
;	COMDAT ?is_iec559@_Num_float_base@std@@2_NB
CONST	SEGMENT
?is_iec559@_Num_float_base@std@@2_NB DB 01H		; std::_Num_float_base::is_iec559
CONST	ENDS
;	COMDAT ?is_exact@_Num_float_base@std@@2_NB
CONST	SEGMENT
?is_exact@_Num_float_base@std@@2_NB DB 00H		; std::_Num_float_base::is_exact
CONST	ENDS
;	COMDAT ?is_bounded@_Num_float_base@std@@2_NB
CONST	SEGMENT
?is_bounded@_Num_float_base@std@@2_NB DB 01H		; std::_Num_float_base::is_bounded
CONST	ENDS
;	COMDAT ?has_signaling_NaN@_Num_float_base@std@@2_NB
CONST	SEGMENT
?has_signaling_NaN@_Num_float_base@std@@2_NB DB 01H	; std::_Num_float_base::has_signaling_NaN
CONST	ENDS
;	COMDAT ?has_quiet_NaN@_Num_float_base@std@@2_NB
CONST	SEGMENT
?has_quiet_NaN@_Num_float_base@std@@2_NB DB 01H		; std::_Num_float_base::has_quiet_NaN
CONST	ENDS
;	COMDAT ?has_infinity@_Num_float_base@std@@2_NB
CONST	SEGMENT
?has_infinity@_Num_float_base@std@@2_NB DB 01H		; std::_Num_float_base::has_infinity
CONST	ENDS
;	COMDAT ?has_denorm_loss@_Num_float_base@std@@2_NB
CONST	SEGMENT
?has_denorm_loss@_Num_float_base@std@@2_NB DB 01H	; std::_Num_float_base::has_denorm_loss
CONST	ENDS
;	COMDAT ?has_denorm@_Num_float_base@std@@2W4float_denorm_style@2@B
CONST	SEGMENT
?has_denorm@_Num_float_base@std@@2W4float_denorm_style@2@B DD 01H ; std::_Num_float_base::has_denorm
CONST	ENDS
;	COMDAT ?radix@_Num_int_base@std@@2HB
CONST	SEGMENT
?radix@_Num_int_base@std@@2HB DD 02H			; std::_Num_int_base::radix
CONST	ENDS
;	COMDAT ?is_specialized@_Num_int_base@std@@2_NB
CONST	SEGMENT
?is_specialized@_Num_int_base@std@@2_NB DB 01H		; std::_Num_int_base::is_specialized
CONST	ENDS
;	COMDAT ?is_modulo@_Num_int_base@std@@2_NB
CONST	SEGMENT
?is_modulo@_Num_int_base@std@@2_NB DB 01H		; std::_Num_int_base::is_modulo
CONST	ENDS
;	COMDAT ?is_integer@_Num_int_base@std@@2_NB
CONST	SEGMENT
?is_integer@_Num_int_base@std@@2_NB DB 01H		; std::_Num_int_base::is_integer
CONST	ENDS
;	COMDAT ?is_exact@_Num_int_base@std@@2_NB
CONST	SEGMENT
?is_exact@_Num_int_base@std@@2_NB DB 01H		; std::_Num_int_base::is_exact
CONST	ENDS
;	COMDAT ?is_bounded@_Num_int_base@std@@2_NB
CONST	SEGMENT
?is_bounded@_Num_int_base@std@@2_NB DB 01H		; std::_Num_int_base::is_bounded
CONST	ENDS
;	COMDAT ?radix@_Num_base@std@@2HB
CONST	SEGMENT
?radix@_Num_base@std@@2HB DD 00H			; std::_Num_base::radix
CONST	ENDS
;	COMDAT ?min_exponent10@_Num_base@std@@2HB
CONST	SEGMENT
?min_exponent10@_Num_base@std@@2HB DD 00H		; std::_Num_base::min_exponent10
CONST	ENDS
;	COMDAT ?min_exponent@_Num_base@std@@2HB
CONST	SEGMENT
?min_exponent@_Num_base@std@@2HB DD 00H			; std::_Num_base::min_exponent
CONST	ENDS
;	COMDAT ?max_exponent10@_Num_base@std@@2HB
CONST	SEGMENT
?max_exponent10@_Num_base@std@@2HB DD 00H		; std::_Num_base::max_exponent10
CONST	ENDS
;	COMDAT ?max_exponent@_Num_base@std@@2HB
CONST	SEGMENT
?max_exponent@_Num_base@std@@2HB DD 00H			; std::_Num_base::max_exponent
CONST	ENDS
;	COMDAT ?max_digits10@_Num_base@std@@2HB
CONST	SEGMENT
?max_digits10@_Num_base@std@@2HB DD 00H			; std::_Num_base::max_digits10
CONST	ENDS
;	COMDAT ?digits10@_Num_base@std@@2HB
CONST	SEGMENT
?digits10@_Num_base@std@@2HB DD 00H			; std::_Num_base::digits10
CONST	ENDS
;	COMDAT ?digits@_Num_base@std@@2HB
CONST	SEGMENT
?digits@_Num_base@std@@2HB DD 00H			; std::_Num_base::digits
CONST	ENDS
;	COMDAT ?round_style@_Num_base@std@@2W4float_round_style@2@B
CONST	SEGMENT
?round_style@_Num_base@std@@2W4float_round_style@2@B DD 00H ; std::_Num_base::round_style
CONST	ENDS
;	COMDAT ?traps@_Num_base@std@@2_NB
CONST	SEGMENT
?traps@_Num_base@std@@2_NB DB 00H			; std::_Num_base::traps
CONST	ENDS
;	COMDAT ?tinyness_before@_Num_base@std@@2_NB
CONST	SEGMENT
?tinyness_before@_Num_base@std@@2_NB DB 00H		; std::_Num_base::tinyness_before
CONST	ENDS
;	COMDAT ?is_specialized@_Num_base@std@@2_NB
CONST	SEGMENT
?is_specialized@_Num_base@std@@2_NB DB 00H		; std::_Num_base::is_specialized
CONST	ENDS
;	COMDAT ?is_signed@_Num_base@std@@2_NB
CONST	SEGMENT
?is_signed@_Num_base@std@@2_NB DB 00H			; std::_Num_base::is_signed
CONST	ENDS
;	COMDAT ?is_modulo@_Num_base@std@@2_NB
CONST	SEGMENT
?is_modulo@_Num_base@std@@2_NB DB 00H			; std::_Num_base::is_modulo
CONST	ENDS
;	COMDAT ?is_integer@_Num_base@std@@2_NB
CONST	SEGMENT
?is_integer@_Num_base@std@@2_NB DB 00H			; std::_Num_base::is_integer
CONST	ENDS
;	COMDAT ?is_iec559@_Num_base@std@@2_NB
CONST	SEGMENT
?is_iec559@_Num_base@std@@2_NB DB 00H			; std::_Num_base::is_iec559
CONST	ENDS
;	COMDAT ?is_exact@_Num_base@std@@2_NB
CONST	SEGMENT
?is_exact@_Num_base@std@@2_NB DB 00H			; std::_Num_base::is_exact
CONST	ENDS
;	COMDAT ?is_bounded@_Num_base@std@@2_NB
CONST	SEGMENT
?is_bounded@_Num_base@std@@2_NB DB 00H			; std::_Num_base::is_bounded
CONST	ENDS
;	COMDAT ?has_signaling_NaN@_Num_base@std@@2_NB
CONST	SEGMENT
?has_signaling_NaN@_Num_base@std@@2_NB DB 00H		; std::_Num_base::has_signaling_NaN
CONST	ENDS
;	COMDAT ?has_quiet_NaN@_Num_base@std@@2_NB
CONST	SEGMENT
?has_quiet_NaN@_Num_base@std@@2_NB DB 00H		; std::_Num_base::has_quiet_NaN
CONST	ENDS
;	COMDAT ?has_infinity@_Num_base@std@@2_NB
CONST	SEGMENT
?has_infinity@_Num_base@std@@2_NB DB 00H		; std::_Num_base::has_infinity
CONST	ENDS
;	COMDAT ?has_denorm_loss@_Num_base@std@@2_NB
CONST	SEGMENT
?has_denorm_loss@_Num_base@std@@2_NB DB 00H		; std::_Num_base::has_denorm_loss
CONST	ENDS
;	COMDAT ?has_denorm@_Num_base@std@@2W4float_denorm_style@2@B
CONST	SEGMENT
?has_denorm@_Num_base@std@@2W4float_denorm_style@2@B DD 00H ; std::_Num_base::has_denorm
CONST	ENDS
;	COMDAT ??_C@_00CNPNBAHC@?$AA@
CONST	SEGMENT
??_C@_00CNPNBAHC@?$AA@ DB 00H				; `string'
; Function compile flags: /Ogtp
CONST	ENDS
;	COMDAT ??E?$_String_const_iterator@DU?$char_traits@D@std@@V?$allocator@D@2@@std@@QAEAAV01@XZ
_TEXT	SEGMENT
??E?$_String_const_iterator@DU?$char_traits@D@std@@V?$allocator@D@2@@std@@QAEAAV01@XZ PROC ; std::_String_const_iterator<char,std::char_traits<char>,std::allocator<char> >::operator++, COMDAT
; _this$ = eax
; File c:\program files\microsoft visual studio 10.0\vc\include\xstring
; Line 119
	inc	DWORD PTR [eax]
; Line 121
	ret	0
??E?$_String_const_iterator@DU?$char_traits@D@std@@V?$allocator@D@2@@std@@QAEAAV01@XZ ENDP ; std::_String_const_iterator<char,std::char_traits<char>,std::allocator<char> >::operator++
; Function compile flags: /Ogtp
_TEXT	ENDS
;	COMDAT ??E?$_String_iterator@DU?$char_traits@D@std@@V?$allocator@D@2@@std@@QAEAAV01@XZ
_TEXT	SEGMENT
??E?$_String_iterator@DU?$char_traits@D@std@@V?$allocator@D@2@@std@@QAEAAV01@XZ PROC ; std::_String_iterator<char,std::char_traits<char>,std::allocator<char> >::operator++, COMDAT
; _this$ = eax
; Line 353
	inc	DWORD PTR [eax]
; Line 355
	ret	0
??E?$_String_iterator@DU?$char_traits@D@std@@V?$allocator@D@2@@std@@QAEAAV01@XZ ENDP ; std::_String_iterator<char,std::char_traits<char>,std::allocator<char> >::operator++
; Function compile flags: /Ogtp
_TEXT	ENDS
;	COMDAT ??$_Maklocstr@D@std@@YAPADPBDPADABU_Cvtvec@@@Z
_TEXT	SEGMENT
??$_Maklocstr@D@std@@YAPADPBDPADABU_Cvtvec@@@Z PROC	; std::_Maklocstr<char>, COMDAT
; __Ptr$ = eax
; File c:\program files\microsoft visual studio 10.0\vc\include\xlocale
; Line 658
	push	esi
	push	edi
	mov	edi, eax
; Line 659
	lea	edx, DWORD PTR [eax+1]
$LL8@Maklocstr:
	mov	cl, BYTE PTR [eax]
	inc	eax
	test	cl, cl
	jne	SHORT $LL8@Maklocstr
	sub	eax, edx
	lea	esi, DWORD PTR [eax+1]
; Line 660
	push	esi
	call	??_U@YAPAXI@Z				; operator new[]
	add	esp, 4
; Line 664
	test	esi, esi
	je	SHORT $LN1@Maklocstr
	mov	ecx, eax
	sub	ecx, edi
$LL3@Maklocstr:
; Line 665
	mov	dl, BYTE PTR [edi]
	mov	BYTE PTR [ecx+edi], dl
	inc	edi
	dec	esi
	jne	SHORT $LL3@Maklocstr
$LN1@Maklocstr:
	pop	edi
	pop	esi
; Line 669
	ret	0
??$_Maklocstr@D@std@@YAPADPBDPADABU_Cvtvec@@@Z ENDP	; std::_Maklocstr<char>
; Function compile flags: /Ogtp
_TEXT	ENDS
;	COMDAT ??$?8DD@std@@YA_NABV?$allocator@D@0@0@Z
_TEXT	SEGMENT
??$?8DD@std@@YA_NABV?$allocator@D@0@0@Z PROC		; std::operator==<char,char>, COMDAT
; File c:\program files\microsoft visual studio 10.0\vc\include\xmemory
; Line 263
	mov	al, 1
; Line 264
	ret	0
??$?8DD@std@@YA_NABV?$allocator@D@0@0@Z ENDP		; std::operator==<char,char>
; Function compile flags: /Ogtp
_TEXT	ENDS
;	COMDAT ??$_Iter_cat@V?$_String_iterator@DU?$char_traits@D@std@@V?$allocator@D@2@@std@@@std@@YA?AUrandom_access_iterator_tag@0@ABV?$_String_iterator@DU?$char_traits@D@std@@V?$allocator@D@2@@0@@Z
_TEXT	SEGMENT
??$_Iter_cat@V?$_String_iterator@DU?$char_traits@D@std@@V?$allocator@D@2@@std@@@std@@YA?AUrandom_access_iterator_tag@0@ABV?$_String_iterator@DU?$char_traits@D@std@@V?$allocator@D@2@@0@@Z PROC ; std::_Iter_cat<std::_String_iterator<char,std::char_traits<char>,std::allocator<char> > >, COMDAT
; ___$ReturnUdt$ = eax
; File c:\program files\microsoft visual studio 10.0\vc\include\xutility
; Line 479
	ret	0
??$_Iter_cat@V?$_String_iterator@DU?$char_traits@D@std@@V?$allocator@D@2@@std@@@std@@YA?AUrandom_access_iterator_tag@0@ABV?$_String_iterator@DU?$char_traits@D@std@@V?$allocator@D@2@@0@@Z ENDP ; std::_Iter_cat<std::_String_iterator<char,std::char_traits<char>,std::allocator<char> > >
; Function compile flags: /Ogtp
_TEXT	ENDS
;	COMDAT ??$move@AAV?$basic_string@DU?$char_traits@D@std@@V?$allocator@D@2@@std@@@std@@YA$$QAV?$basic_string@DU?$char_traits@D@std@@V?$allocator@D@2@@0@AAV10@@Z
_TEXT	SEGMENT
??$move@AAV?$basic_string@DU?$char_traits@D@std@@V?$allocator@D@2@@std@@@std@@YA$$QAV?$basic_string@DU?$char_traits@D@std@@V?$allocator@D@2@@0@AAV10@@Z PROC ; std::move<std::basic_string<char,std::char_traits<char>,std::allocator<char> > &>, COMDAT
; __Arg$ = eax
; File c:\program files\microsoft visual studio 10.0\vc\include\utility
; Line 88
	ret	0
??$move@AAV?$basic_string@DU?$char_traits@D@std@@V?$allocator@D@2@@std@@@std@@YA$$QAV?$basic_string@DU?$char_traits@D@std@@V?$allocator@D@2@@0@AAV10@@Z ENDP ; std::move<std::basic_string<char,std::char_traits<char>,std::allocator<char> > &>
; Function compile flags: /Ogtp
_TEXT	ENDS
;	COMDAT ?_Init@?$codecvt@DDH@std@@IAEXABV_Locinfo@2@@Z
_TEXT	SEGMENT
___formal$ = 8						; size = 4
?_Init@?$codecvt@DDH@std@@IAEXABV_Locinfo@2@@Z PROC	; std::codecvt<char,char,int>::_Init, COMDAT
; _this$ = ecx
; File c:\program files\microsoft visual studio 10.0\vc\include\xlocale
; Line 863
	ret	4
?_Init@?$codecvt@DDH@std@@IAEXABV_Locinfo@2@@Z ENDP	; std::codecvt<char,char,int>::_Init
; Function compile flags: /Ogtp
_TEXT	ENDS
;	COMDAT ?sputn@?$basic_streambuf@DU?$char_traits@D@std@@@std@@QAE_JPBD_J@Z
_TEXT	SEGMENT
__Ptr$ = 8						; size = 4
__Count$ = 12						; size = 8
?sputn@?$basic_streambuf@DU?$char_traits@D@std@@@std@@QAE_JPBD_J@Z PROC ; std::basic_streambuf<char,std::char_traits<char> >::sputn, COMDAT
; _this$ = ecx
; File c:\program files\microsoft visual studio 10.0\vc\include\streambuf
; Line 201
	push	ebp
	mov	ebp, esp
; Line 202
	mov	edx, DWORD PTR __Count$[ebp+4]
	mov	eax, DWORD PTR [ecx]
	mov	eax, DWORD PTR [eax+36]
	push	edx
	mov	edx, DWORD PTR __Count$[ebp]
	push	edx
	mov	edx, DWORD PTR __Ptr$[ebp]
	push	edx
	call	eax
; Line 203
	pop	ebp
	ret	12					; 0000000cH
?sputn@?$basic_streambuf@DU?$char_traits@D@std@@@std@@QAE_JPBD_J@Z ENDP ; std::basic_streambuf<char,std::char_traits<char> >::sputn
; Function compile flags: /Ogtp
_TEXT	ENDS
;	COMDAT ??0bad_alloc@std@@QAE@ABV01@@Z
_TEXT	SEGMENT
___that$ = 8						; size = 4
??0bad_alloc@std@@QAE@ABV01@@Z PROC			; std::bad_alloc::bad_alloc, COMDAT
; _this$ = ecx
	push	ebp
	mov	ebp, esp
	mov	eax, DWORD PTR ___that$[ebp]
	push	esi
	push	eax
	mov	esi, ecx
	call	??0exception@std@@QAE@ABV01@@Z		; std::exception::exception
	mov	DWORD PTR [esi], OFFSET ??_7bad_alloc@std@@6B@
	mov	eax, esi
	pop	esi
	pop	ebp
	ret	4
??0bad_alloc@std@@QAE@ABV01@@Z ENDP			; std::bad_alloc::bad_alloc
; Function compile flags: /Ogtp
_TEXT	ENDS
;	COMDAT ??$_Maklocchr@D@std@@YADDPADABU_Cvtvec@@@Z
_TEXT	SEGMENT
??$_Maklocchr@D@std@@YADDPADABU_Cvtvec@@@Z PROC		; std::_Maklocchr<char>, COMDAT
; __Byte$ = eax
; File c:\program files\microsoft visual studio 10.0\vc\include\xlocale
; Line 627
	ret	0
??$_Maklocchr@D@std@@YADDPADABU_Cvtvec@@@Z ENDP		; std::_Maklocchr<char>
; Function compile flags: /Ogtp
_TEXT	ENDS
;	COMDAT ??$?9DD@std@@YA_NABV?$allocator@D@0@0@Z
_TEXT	SEGMENT
??$?9DD@std@@YA_NABV?$allocator@D@0@0@Z PROC		; std::operator!=<char,char>, COMDAT
; File c:\program files\microsoft visual studio 10.0\vc\include\xmemory
; Line 271
	xor	al, al
; Line 272
	ret	0
??$?9DD@std@@YA_NABV?$allocator@D@0@0@Z ENDP		; std::operator!=<char,char>
; Function compile flags: /Ogtp
_TEXT	ENDS
;	COMDAT ??$forward@V?$basic_string@DU?$char_traits@D@std@@V?$allocator@D@2@@std@@@std@@YA$$QAV?$basic_string@DU?$char_traits@D@std@@V?$allocator@D@2@@0@AAV10@@Z
_TEXT	SEGMENT
??$forward@V?$basic_string@DU?$char_traits@D@std@@V?$allocator@D@2@@std@@@std@@YA$$QAV?$basic_string@DU?$char_traits@D@std@@V?$allocator@D@2@@0@AAV10@@Z PROC ; std::forward<std::basic_string<char,std::char_traits<char>,std::allocator<char> > >, COMDAT
; __Arg$ = eax
; File c:\program files\microsoft visual studio 10.0\vc\include\utility
; Line 80
	ret	0
??$forward@V?$basic_string@DU?$char_traits@D@std@@V?$allocator@D@2@@std@@@std@@YA$$QAV?$basic_string@DU?$char_traits@D@std@@V?$allocator@D@2@@0@AAV10@@Z ENDP ; std::forward<std::basic_string<char,std::char_traits<char>,std::allocator<char> > >
; Function compile flags: /Ogtp
_TEXT	ENDS
;	COMDAT ??$forward@V?$allocator@D@std@@@std@@YA$$QAV?$allocator@D@0@AAV10@@Z
_TEXT	SEGMENT
??$forward@V?$allocator@D@std@@@std@@YA$$QAV?$allocator@D@0@AAV10@@Z PROC ; std::forward<std::allocator<char> >, COMDAT
; __Arg$ = eax
; Line 80
	ret	0
??$forward@V?$allocator@D@std@@@std@@YA$$QAV?$allocator@D@0@AAV10@@Z ENDP ; std::forward<std::allocator<char> >
; Function compile flags: /Ogtp
_TEXT	ENDS
;	COMDAT ?_Compat@?$_String_const_iterator@DU?$char_traits@D@std@@V?$allocator@D@2@@std@@QBEXABV12@@Z
_TEXT	SEGMENT
?_Compat@?$_String_const_iterator@DU?$char_traits@D@std@@V?$allocator@D@2@@std@@QBEXABV12@@Z PROC ; std::_String_const_iterator<char,std::char_traits<char>,std::allocator<char> >::_Compat, COMDAT
; File c:\program files\microsoft visual studio 10.0\vc\include\xstring
; Line 264
	ret	0
?_Compat@?$_String_const_iterator@DU?$char_traits@D@std@@V?$allocator@D@2@@std@@QBEXABV12@@Z ENDP ; std::_String_const_iterator<char,std::char_traits<char>,std::allocator<char> >::_Compat
; Function compile flags: /Ogtp
_TEXT	ENDS
;	COMDAT ?max_size@?$allocator@_W@std@@QBEIXZ
_TEXT	SEGMENT
?max_size@?$allocator@_W@std@@QBEIXZ PROC		; std::allocator<wchar_t>::max_size, COMDAT
; File c:\program files\microsoft visual studio 10.0\vc\include\xmemory
; Line 219
	mov	eax, 2147483647				; 7fffffffH
; Line 220
	ret	0
?max_size@?$allocator@_W@std@@QBEIXZ ENDP		; std::allocator<wchar_t>::max_size
; Function compile flags: /Ogtp
_TEXT	ENDS
;	COMDAT ?max_size@?$allocator@D@std@@QBEIXZ
_TEXT	SEGMENT
?max_size@?$allocator@D@std@@QBEIXZ PROC		; std::allocator<char>::max_size, COMDAT
; _this$ = ecx
; Line 219
	or	eax, -1
; Line 220
	ret	0
?max_size@?$allocator@D@std@@QBEIXZ ENDP		; std::allocator<char>::max_size
; Function compile flags: /Ogtp
_TEXT	ENDS
;	COMDAT ?_Tidy@?$numpunct@D@std@@AAEXXZ
_TEXT	SEGMENT
?_Tidy@?$numpunct@D@std@@AAEXXZ PROC			; std::numpunct<char>::_Tidy, COMDAT
; _this$ = esi
; File c:\program files\microsoft visual studio 10.0\vc\include\xlocnum
; Line 190
	mov	eax, DWORD PTR [esi+8]
	push	eax
	call	??_V@YAXPAX@Z				; operator delete[]
; Line 191
	mov	ecx, DWORD PTR [esi+16]
	push	ecx
	call	??_V@YAXPAX@Z				; operator delete[]
; Line 192
	mov	edx, DWORD PTR [esi+20]
	push	edx
	call	??_V@YAXPAX@Z				; operator delete[]
	add	esp, 12					; 0000000cH
; Line 193
	ret	0
?_Tidy@?$numpunct@D@std@@AAEXXZ ENDP			; std::numpunct<char>::_Tidy
; Function compile flags: /Ogtp
_TEXT	ENDS
;	COMDAT ?thousands_sep@?$numpunct@D@std@@QBEDXZ
_TEXT	SEGMENT
?thousands_sep@?$numpunct@D@std@@QBEDXZ PROC		; std::numpunct<char>::thousands_sep, COMDAT
; _this$ = ecx
; Line 74
	mov	eax, DWORD PTR [ecx]
	mov	edx, DWORD PTR [eax+8]
	jmp	edx
?thousands_sep@?$numpunct@D@std@@QBEDXZ ENDP		; std::numpunct<char>::thousands_sep
; Function compile flags: /Ogtp
_TEXT	ENDS
;	COMDAT ?decimal_point@?$numpunct@D@std@@QBEDXZ
_TEXT	SEGMENT
?decimal_point@?$numpunct@D@std@@QBEDXZ PROC		; std::numpunct<char>::decimal_point, COMDAT
; _this$ = ecx
; Line 69
	mov	eax, DWORD PTR [ecx]
	mov	edx, DWORD PTR [eax+4]
	jmp	edx
?decimal_point@?$numpunct@D@std@@QBEDXZ ENDP		; std::numpunct<char>::decimal_point
; Function compile flags: /Ogtp
_TEXT	ENDS
;	COMDAT ??E?$ostreambuf_iterator@DU?$char_traits@D@std@@@std@@QAEAAV01@XZ
_TEXT	SEGMENT
??E?$ostreambuf_iterator@DU?$char_traits@D@std@@@std@@QAEAAV01@XZ PROC ; std::ostreambuf_iterator<char,std::char_traits<char> >::operator++, COMDAT
; _this$ = eax
; File c:\program files\microsoft visual studio 10.0\vc\include\streambuf
; Line 638
	ret	0
??E?$ostreambuf_iterator@DU?$char_traits@D@std@@@std@@QAEAAV01@XZ ENDP ; std::ostreambuf_iterator<char,std::char_traits<char> >::operator++
; Function compile flags: /Ogtp
_TEXT	ENDS
;	COMDAT ??D?$ostreambuf_iterator@DU?$char_traits@D@std@@@std@@QAEAAV01@XZ
_TEXT	SEGMENT
??D?$ostreambuf_iterator@DU?$char_traits@D@std@@@std@@QAEAAV01@XZ PROC ; std::ostreambuf_iterator<char,std::char_traits<char> >::operator*, COMDAT
; _this$ = eax
; Line 633
	ret	0
??D?$ostreambuf_iterator@DU?$char_traits@D@std@@@std@@QAEAAV01@XZ ENDP ; std::ostreambuf_iterator<char,std::char_traits<char> >::operator*
; Function compile flags: /Ogtp
_TEXT	ENDS
;	COMDAT ??G?$_String_const_iterator@DU?$char_traits@D@std@@V?$allocator@D@2@@std@@QBEHABV01@@Z
_TEXT	SEGMENT
??G?$_String_const_iterator@DU?$char_traits@D@std@@V?$allocator@D@2@@std@@QBEHABV01@@Z PROC ; std::_String_const_iterator<char,std::char_traits<char>,std::allocator<char> >::operator-, COMDAT
; _this$ = eax
; __Right$ = ecx
; File c:\program files\microsoft visual studio 10.0\vc\include\xstring
; Line 203
	mov	eax, DWORD PTR [eax]
	sub	eax, DWORD PTR [ecx]
; Line 204
	ret	0
??G?$_String_const_iterator@DU?$char_traits@D@std@@V?$allocator@D@2@@std@@QBEHABV01@@Z ENDP ; std::_String_const_iterator<char,std::char_traits<char>,std::allocator<char> >::operator-
; Function compile flags: /Ogtp
_TEXT	ENDS
;	COMDAT ?_Xlen@?$basic_string@_WU?$char_traits@_W@std@@V?$allocator@_W@2@@std@@QBEXXZ
_TEXT	SEGMENT
?_Xlen@?$basic_string@_WU?$char_traits@_W@std@@V?$allocator@_W@2@@std@@QBEXXZ PROC ; std::basic_string<wchar_t,std::char_traits<wchar_t>,std::allocator<wchar_t> >::_Xlen, COMDAT
; Line 2016
	push	OFFSET ??_C@_0BA@JFNIOLAK@string?5too?5long?$AA@
	call	?_Xlength_error@std@@YAXPBD@Z		; std::_Xlength_error
$LN4@Xlen:
$LN3@Xlen:
	int	3
?_Xlen@?$basic_string@_WU?$char_traits@_W@std@@V?$allocator@_W@2@@std@@QBEXXZ ENDP ; std::basic_string<wchar_t,std::char_traits<wchar_t>,std::allocator<wchar_t> >::_Xlen
; Function compile flags: /Ogtp
_TEXT	ENDS
;	COMDAT ?max_size@?$basic_string@_WU?$char_traits@_W@std@@V?$allocator@_W@2@@std@@QBEIXZ
_TEXT	SEGMENT
?max_size@?$basic_string@_WU?$char_traits@_W@std@@V?$allocator@_W@2@@std@@QBEIXZ PROC ; std::basic_string<wchar_t,std::char_traits<wchar_t>,std::allocator<wchar_t> >::max_size, COMDAT
; Line 1518
	mov	eax, 2147483646				; 7ffffffeH
; Line 1519
	ret	0
?max_size@?$basic_string@_WU?$char_traits@_W@std@@V?$allocator@_W@2@@std@@QBEIXZ ENDP ; std::basic_string<wchar_t,std::char_traits<wchar_t>,std::allocator<wchar_t> >::max_size
; Function compile flags: /Ogtp
_TEXT	ENDS
;	COMDAT ?setp@?$basic_streambuf@DU?$char_traits@D@std@@@std@@IAEXPAD0@Z
_TEXT	SEGMENT
__First$ = 8						; size = 4
__Last$ = 12						; size = 4
?setp@?$basic_streambuf@DU?$char_traits@D@std@@@std@@IAEXPAD0@Z PROC ; std::basic_streambuf<char,std::char_traits<char> >::setp, COMDAT
; _this$ = ecx
; File c:\program files\microsoft visual studio 10.0\vc\include\streambuf
; Line 289
	push	ebp
	mov	ebp, esp
; Line 290
	mov	edx, DWORD PTR [ecx+20]
	mov	eax, DWORD PTR __First$[ebp]
	mov	DWORD PTR [edx], eax
; Line 291
	mov	edx, DWORD PTR [ecx+36]
	mov	DWORD PTR [edx], eax
; Line 292
	mov	edx, DWORD PTR __Last$[ebp]
	sub	edx, eax
	mov	eax, DWORD PTR [ecx+52]
	mov	DWORD PTR [eax], edx
; Line 293
	pop	ebp
	ret	8
?setp@?$basic_streambuf@DU?$char_traits@D@std@@@std@@IAEXPAD0@Z ENDP ; std::basic_streambuf<char,std::char_traits<char> >::setp
; Function compile flags: /Ogtp
_TEXT	ENDS
;	COMDAT ?max_size@?$basic_string@DU?$char_traits@D@std@@V?$allocator@D@2@@std@@QBEIXZ
_TEXT	SEGMENT
?max_size@?$basic_string@DU?$char_traits@D@std@@V?$allocator@D@2@@std@@QBEIXZ PROC ; std::basic_string<char,std::char_traits<char>,std::allocator<char> >::max_size, COMDAT
; _this$ = ecx
; File c:\program files\microsoft visual studio 10.0\vc\include\xstring
; Line 1518
	mov	eax, -2					; fffffffeH
; Line 1519
	ret	0
?max_size@?$basic_string@DU?$char_traits@D@std@@V?$allocator@D@2@@std@@QBEIXZ ENDP ; std::basic_string<char,std::char_traits<char>,std::allocator<char> >::max_size
; Function compile flags: /Ogtp
_TEXT	ENDS
;	COMDAT ?do_thousands_sep@?$numpunct@D@std@@MBEDXZ
_TEXT	SEGMENT
?do_thousands_sep@?$numpunct@D@std@@MBEDXZ PROC		; std::numpunct<char>::do_thousands_sep, COMDAT
; _this$ = ecx
; File c:\program files\microsoft visual studio 10.0\vc\include\xlocnum
; Line 169
	mov	al, BYTE PTR [ecx+13]
; Line 170
	ret	0
?do_thousands_sep@?$numpunct@D@std@@MBEDXZ ENDP		; std::numpunct<char>::do_thousands_sep
; Function compile flags: /Ogtp
_TEXT	ENDS
;	COMDAT ?do_decimal_point@?$numpunct@D@std@@MBEDXZ
_TEXT	SEGMENT
?do_decimal_point@?$numpunct@D@std@@MBEDXZ PROC		; std::numpunct<char>::do_decimal_point, COMDAT
; _this$ = ecx
; Line 164
	mov	al, BYTE PTR [ecx+12]
; Line 165
	ret	0
?do_decimal_point@?$numpunct@D@std@@MBEDXZ ENDP		; std::numpunct<char>::do_decimal_point
; Function compile flags: /Ogtp
_TEXT	ENDS
;	COMDAT ?unshift@?$codecvt@DDH@std@@QBEHAAHPAD1AAPAD@Z
_TEXT	SEGMENT
__State$ = 8						; size = 4
__First2$ = 12						; size = 4
__Last2$ = 16						; size = 4
__Mid2$ = 20						; size = 4
?unshift@?$codecvt@DDH@std@@QBEHAAHPAD1AAPAD@Z PROC	; std::codecvt<char,char,int>::unshift, COMDAT
; _this$ = ecx
; File c:\program files\microsoft visual studio 10.0\vc\include\xlocale
; Line 823
	push	ebp
	mov	ebp, esp
; Line 824
	mov	eax, DWORD PTR [ecx]
	mov	eax, DWORD PTR [eax+24]
; Line 825
	pop	ebp
; Line 824
	jmp	eax
?unshift@?$codecvt@DDH@std@@QBEHAAHPAD1AAPAD@Z ENDP	; std::codecvt<char,char,int>::unshift
; Function compile flags: /Ogtp
_TEXT	ENDS
;	COMDAT ?_Ifmt@?$num_put@DV?$ostreambuf_iterator@DU?$char_traits@D@std@@@std@@@std@@ABAPADPADPBDH@Z
_TEXT	SEGMENT
?_Ifmt@?$num_put@DV?$ostreambuf_iterator@DU?$char_traits@D@std@@@std@@@std@@ABAPADPADPBDH@Z PROC ; std::num_put<char,std::ostreambuf_iterator<char,std::char_traits<char> > >::_Ifmt, COMDAT
; __Fmt$ = eax
; __Spec$ = edi
; __Flags$ = edx
; File c:\program files\microsoft visual studio 10.0\vc\include\xlocnum
; Line 1453
	mov	BYTE PTR [eax], 37			; 00000025H
	lea	ecx, DWORD PTR [eax+1]
; Line 1455
	test	dl, 32					; 00000020H
	je	SHORT $LN4@Ifmt
; Line 1456
	mov	BYTE PTR [ecx], 43			; 0000002bH
	inc	ecx
$LN4@Ifmt:
; Line 1457
	test	dl, 8
	je	SHORT $LN3@Ifmt
; Line 1458
	mov	BYTE PTR [ecx], 35			; 00000023H
	inc	ecx
$LN3@Ifmt:
; Line 1459
	push	ebx
	mov	bl, BYTE PTR [edi]
	push	esi
	cmp	bl, 76					; 0000004cH
	je	SHORT $LN2@Ifmt
; Line 1460
	mov	BYTE PTR [ecx], bl
	inc	ecx
; Line 1461
	jmp	SHORT $LN1@Ifmt
$LN2@Ifmt:
; Line 1464
	mov	WORD PTR [ecx], 13897			; 00003649H
; Line 1466
	mov	BYTE PTR [ecx+2], 52			; 00000034H
	add	ecx, 3
$LN1@Ifmt:
; Line 1469
	mov	esi, edx
	and	esi, 3584				; 00000e00H
; Line 1472
	cmp	esi, 1024				; 00000400H
	jne	SHORT $LN9@Ifmt
	mov	dl, 111					; 0000006fH
	pop	esi
	mov	BYTE PTR [ecx], dl
; Line 1473
	mov	BYTE PTR [ecx+1], 0
	pop	ebx
; Line 1475
	ret	0
$LN9@Ifmt:
; Line 1472
	cmp	esi, 2048				; 00000800H
	je	SHORT $LN7@Ifmt
	mov	dl, BYTE PTR [edi+1]
	pop	esi
	mov	BYTE PTR [ecx], dl
; Line 1473
	mov	BYTE PTR [ecx+1], 0
	pop	ebx
; Line 1475
	ret	0
$LN7@Ifmt:
; Line 1472
	add	dl, dl
	add	dl, dl
	add	dl, dl
	not	dl
	and	dl, 32					; 00000020H
	or	dl, 88					; 00000058H
	pop	esi
	mov	BYTE PTR [ecx], dl
; Line 1473
	mov	BYTE PTR [ecx+1], 0
	pop	ebx
; Line 1475
	ret	0
?_Ifmt@?$num_put@DV?$ostreambuf_iterator@DU?$char_traits@D@std@@@std@@@std@@ABAPADPADPBDH@Z ENDP ; std::num_put<char,std::ostreambuf_iterator<char,std::char_traits<char> > >::_Ifmt
; Function compile flags: /Ogtp
_TEXT	ENDS
;	COMDAT ?_Ffmt@?$num_put@DV?$ostreambuf_iterator@DU?$char_traits@D@std@@@std@@@std@@ABAPADPADDH@Z
_TEXT	SEGMENT
?_Ffmt@?$num_put@DV?$ostreambuf_iterator@DU?$char_traits@D@std@@@std@@@std@@ABAPADPADDH@Z PROC ; std::num_put<char,std::ostreambuf_iterator<char,std::char_traits<char> > >::_Ffmt, COMDAT
; __Fmt$ = eax
; __Spec$ = ebx
; __Flags$ = edx
; Line 1310
	mov	BYTE PTR [eax], 37			; 00000025H
	lea	ecx, DWORD PTR [eax+1]
; Line 1312
	test	dl, 32					; 00000020H
	je	SHORT $LN3@Ffmt
; Line 1313
	mov	BYTE PTR [ecx], 43			; 0000002bH
	inc	ecx
$LN3@Ffmt:
; Line 1314
	test	dl, 16					; 00000010H
	je	SHORT $LN2@Ffmt
; Line 1315
	mov	BYTE PTR [ecx], 35			; 00000023H
	inc	ecx
$LN2@Ffmt:
; Line 1316
	mov	WORD PTR [ecx], 10798			; 00002a2eH
; Line 1317
	add	ecx, 2
; Line 1318
	test	bl, bl
	je	SHORT $LN1@Ffmt
; Line 1319
	mov	BYTE PTR [ecx], bl
	inc	ecx
$LN1@Ffmt:
; Line 1321
	and	edx, 12288				; 00003000H
; Line 1324
	cmp	edx, 8192				; 00002000H
	jne	SHORT $LN8@Ffmt
	mov	dl, 102					; 00000066H
	mov	BYTE PTR [ecx], dl
; Line 1325
	mov	BYTE PTR [ecx+1], 0
; Line 1327
	ret	0
$LN8@Ffmt:
; Line 1324
	cmp	edx, 12288				; 00003000H
	jne	SHORT $LN6@Ffmt
	mov	dl, 97					; 00000061H
	mov	BYTE PTR [ecx], dl
; Line 1325
	mov	BYTE PTR [ecx+1], 0
; Line 1327
	ret	0
$LN6@Ffmt:
; Line 1324
	cmp	edx, 4096				; 00001000H
	setne	dl
	lea	edx, DWORD PTR [edx+edx+101]
	mov	BYTE PTR [ecx], dl
; Line 1325
	mov	BYTE PTR [ecx+1], 0
; Line 1327
	ret	0
?_Ffmt@?$num_put@DV?$ostreambuf_iterator@DU?$char_traits@D@std@@@std@@@std@@ABAPADPADDH@Z ENDP ; std::num_put<char,std::ostreambuf_iterator<char,std::char_traits<char> > >::_Ffmt
; Function compile flags: /Ogtp
_TEXT	ENDS
;	COMDAT ??D?$_String_const_iterator@DU?$char_traits@D@std@@V?$allocator@D@2@@std@@QBEABDXZ
_TEXT	SEGMENT
??D?$_String_const_iterator@DU?$char_traits@D@std@@V?$allocator@D@2@@std@@QBEABDXZ PROC ; std::_String_const_iterator<char,std::char_traits<char>,std::allocator<char> >::operator*, COMDAT
; _this$ = ecx
; File c:\program files\microsoft visual studio 10.0\vc\include\xstring
; Line 92
	mov	eax, DWORD PTR [ecx]
; Line 93
	ret	0
??D?$_String_const_iterator@DU?$char_traits@D@std@@V?$allocator@D@2@@std@@QBEABDXZ ENDP ; std::_String_const_iterator<char,std::char_traits<char>,std::allocator<char> >::operator*
; Function compile flags: /Ogtp
_TEXT	ENDS
;	COMDAT ?deallocate@?$allocator@_W@std@@QAEXPA_WI@Z
_TEXT	SEGMENT
?deallocate@?$allocator@_W@std@@QAEXPA_WI@Z PROC	; std::allocator<wchar_t>::deallocate, COMDAT
; __Ptr$ = eax
; File c:\program files\microsoft visual studio 10.0\vc\include\xmemory
; Line 182
	push	eax
	call	??3@YAXPAX@Z				; operator delete
	pop	ecx
; Line 183
	ret	0
?deallocate@?$allocator@_W@std@@QAEXPA_WI@Z ENDP	; std::allocator<wchar_t>::deallocate
; Function compile flags: /Ogtp
_TEXT	ENDS
;	COMDAT ?_Pninc@?$basic_streambuf@_WU?$char_traits@_W@std@@@std@@IAEPA_WXZ
_TEXT	SEGMENT
?_Pninc@?$basic_streambuf@_WU?$char_traits@_W@std@@@std@@IAEPA_WXZ PROC ; std::basic_streambuf<wchar_t,std::char_traits<wchar_t> >::_Pninc, COMDAT
; _this$ = ecx
; File c:\program files\microsoft visual studio 10.0\vc\include\streambuf
; Line 304
	mov	eax, DWORD PTR [ecx+52]
	dec	DWORD PTR [eax]
; Line 305
	mov	ecx, DWORD PTR [ecx+36]
	mov	eax, DWORD PTR [ecx]
	lea	edx, DWORD PTR [eax+2]
	mov	DWORD PTR [ecx], edx
; Line 306
	ret	0
?_Pninc@?$basic_streambuf@_WU?$char_traits@_W@std@@@std@@IAEPA_WXZ ENDP ; std::basic_streambuf<wchar_t,std::char_traits<wchar_t> >::_Pninc
; Function compile flags: /Ogtp
_TEXT	ENDS
;	COMDAT ?_Init@?$basic_streambuf@DU?$char_traits@D@std@@@std@@IAEXPAPAD0PAH001@Z
_TEXT	SEGMENT
__Gf$ = 8						; size = 4
__Gn$ = 12						; size = 4
__Gc$ = 16						; size = 4
__Pf$ = 20						; size = 4
__Pn$ = 24						; size = 4
__Pc$ = 28						; size = 4
?_Init@?$basic_streambuf@DU?$char_traits@D@std@@@std@@IAEXPAPAD0PAH001@Z PROC ; std::basic_streambuf<char,std::char_traits<char> >::_Init, COMDAT
; _this$ = ecx
; Line 327
	push	ebp
	mov	ebp, esp
; Line 328
	mov	eax, DWORD PTR __Gf$[ebp]
; Line 329
	mov	edx, DWORD PTR __Pf$[ebp]
	mov	DWORD PTR [ecx+16], eax
; Line 330
	mov	eax, DWORD PTR __Gn$[ebp]
	mov	DWORD PTR [ecx+20], edx
; Line 331
	mov	edx, DWORD PTR __Pn$[ebp]
	mov	DWORD PTR [ecx+32], eax
; Line 332
	mov	eax, DWORD PTR __Gc$[ebp]
	mov	DWORD PTR [ecx+36], edx
; Line 333
	mov	edx, DWORD PTR __Pc$[ebp]
	mov	DWORD PTR [ecx+48], eax
	mov	DWORD PTR [ecx+52], edx
; Line 334
	pop	ebp
	ret	24					; 00000018H
?_Init@?$basic_streambuf@DU?$char_traits@D@std@@@std@@IAEXPAPAD0PAH001@Z ENDP ; std::basic_streambuf<char,std::char_traits<char> >::_Init
; Function compile flags: /Ogtp
_TEXT	ENDS
;	COMDAT ?setg@?$basic_streambuf@DU?$char_traits@D@std@@@std@@IAEXPAD00@Z
_TEXT	SEGMENT
__First$ = 8						; size = 4
__Next$ = 12						; size = 4
__Last$ = 16						; size = 4
?setg@?$basic_streambuf@DU?$char_traits@D@std@@@std@@IAEXPAD00@Z PROC ; std::basic_streambuf<char,std::char_traits<char> >::setg, COMDAT
; _this$ = ecx
; Line 248
	push	ebp
	mov	ebp, esp
; Line 249
	mov	eax, DWORD PTR [ecx+16]
	mov	edx, DWORD PTR __First$[ebp]
	mov	DWORD PTR [eax], edx
; Line 250
	mov	edx, DWORD PTR [ecx+32]
	mov	eax, DWORD PTR __Next$[ebp]
	mov	DWORD PTR [edx], eax
; Line 251
	mov	edx, DWORD PTR __Last$[ebp]
	sub	edx, eax
	mov	eax, DWORD PTR [ecx+48]
	mov	DWORD PTR [eax], edx
; Line 252
	pop	ebp
	ret	12					; 0000000cH
?setg@?$basic_streambuf@DU?$char_traits@D@std@@@std@@IAEXPAD00@Z ENDP ; std::basic_streambuf<char,std::char_traits<char> >::setg
; Function compile flags: /Ogtp
_TEXT	ENDS
;	COMDAT ?tie@?$basic_ios@_WU?$char_traits@_W@std@@@std@@QBEPAV?$basic_ostream@_WU?$char_traits@_W@std@@@2@XZ
_TEXT	SEGMENT
?tie@?$basic_ios@_WU?$char_traits@_W@std@@@std@@QBEPAV?$basic_ostream@_WU?$char_traits@_W@std@@@2@XZ PROC ; std::basic_ios<wchar_t,std::char_traits<wchar_t> >::tie, COMDAT
; _this$ = eax
; File c:\program files\microsoft visual studio 10.0\vc\include\ios
; Line 74
	mov	eax, DWORD PTR [eax+60]
; Line 75
	ret	0
?tie@?$basic_ios@_WU?$char_traits@_W@std@@@std@@QBEPAV?$basic_ostream@_WU?$char_traits@_W@std@@@2@XZ ENDP ; std::basic_ios<wchar_t,std::char_traits<wchar_t> >::tie
; Function compile flags: /Ogtp
_TEXT	ENDS
;	COMDAT ?tie@?$basic_ios@DU?$char_traits@D@std@@@std@@QBEPAV?$basic_ostream@DU?$char_traits@D@std@@@2@XZ
_TEXT	SEGMENT
?tie@?$basic_ios@DU?$char_traits@D@std@@@std@@QBEPAV?$basic_ostream@DU?$char_traits@D@std@@@2@XZ PROC ; std::basic_ios<char,std::char_traits<char> >::tie, COMDAT
; _this$ = eax
; Line 74
	mov	eax, DWORD PTR [eax+60]
; Line 75
	ret	0
?tie@?$basic_ios@DU?$char_traits@D@std@@@std@@QBEPAV?$basic_ostream@DU?$char_traits@D@std@@@2@XZ ENDP ; std::basic_ios<char,std::char_traits<char> >::tie
; Function compile flags: /Ogtp
_TEXT	ENDS
;	COMDAT ?deallocate@?$allocator@D@std@@QAEXPADI@Z
_TEXT	SEGMENT
__Ptr$ = 8						; size = 4
___formal$ = 12						; size = 4
?deallocate@?$allocator@D@std@@QAEXPADI@Z PROC		; std::allocator<char>::deallocate, COMDAT
; _this$ = ecx
; File c:\program files\microsoft visual studio 10.0\vc\include\xmemory
; Line 181
	push	ebp
	mov	ebp, esp
; Line 182
	mov	eax, DWORD PTR __Ptr$[ebp]
	push	eax
	call	??3@YAXPAX@Z				; operator delete
	add	esp, 4
; Line 183
	pop	ebp
	ret	8
?deallocate@?$allocator@D@std@@QAEXPADI@Z ENDP		; std::allocator<char>::deallocate
; Function compile flags: /Ogtp
_TEXT	ENDS
;	COMDAT ?_Xran@?$basic_string@DU?$char_traits@D@std@@V?$allocator@D@2@@std@@QBEXXZ
_TEXT	SEGMENT
?_Xran@?$basic_string@DU?$char_traits@D@std@@V?$allocator@D@2@@std@@QBEXXZ PROC ; std::basic_string<char,std::char_traits<char>,std::allocator<char> >::_Xran, COMDAT
; _this$ = ecx
; File c:\program files\microsoft visual studio 10.0\vc\include\xstring
; Line 2021
	push	OFFSET ??_C@_0BI@CFPLBAOH@invalid?5string?5position?$AA@
	call	?_Xout_of_range@std@@YAXPBD@Z		; std::_Xout_of_range
$LN4@Xran:
$LN3@Xran:
	int	3
?_Xran@?$basic_string@DU?$char_traits@D@std@@V?$allocator@D@2@@std@@QBEXXZ ENDP ; std::basic_string<char,std::char_traits<char>,std::allocator<char> >::_Xran
; Function compile flags: /Ogtp
_TEXT	ENDS
;	COMDAT ?_Xlen@?$basic_string@DU?$char_traits@D@std@@V?$allocator@D@2@@std@@QBEXXZ
_TEXT	SEGMENT
?_Xlen@?$basic_string@DU?$char_traits@D@std@@V?$allocator@D@2@@std@@QBEXXZ PROC ; std::basic_string<char,std::char_traits<char>,std::allocator<char> >::_Xlen, COMDAT
; _this$ = ecx
; Line 2016
	push	OFFSET ??_C@_0BA@JFNIOLAK@string?5too?5long?$AA@
	call	?_Xlength_error@std@@YAXPBD@Z		; std::_Xlength_error
$LN4@Xlen@2:
$LN3@Xlen@2:
	int	3
?_Xlen@?$basic_string@DU?$char_traits@D@std@@V?$allocator@D@2@@std@@QBEXXZ ENDP ; std::basic_string<char,std::char_traits<char>,std::allocator<char> >::_Xlen
; Function compile flags: /Ogtp
_TEXT	ENDS
;	COMDAT ?do_length@?$codecvt@DDH@std@@MBEHABHPBD1I@Z
_TEXT	SEGMENT
___formal$ = 8						; size = 4
__First1$ = 12						; size = 4
__Last1$ = 16						; size = 4
__Count$ = 20						; size = 4
?do_length@?$codecvt@DDH@std@@MBEHABHPBD1I@Z PROC	; std::codecvt<char,char,int>::do_length, COMDAT
; _this$ = ecx
; File c:\program files\microsoft visual studio 10.0\vc\include\xlocale
; Line 890
	push	ebp
	mov	ebp, esp
; Line 892
	mov	eax, DWORD PTR __Last1$[ebp]
	sub	eax, DWORD PTR __First1$[ebp]
	mov	ecx, DWORD PTR __Count$[ebp]
	cmp	ecx, eax
	jae	SHORT $LN4@do_length
	mov	eax, ecx
$LN4@do_length:
; Line 893
	pop	ebp
	ret	16					; 00000010H
?do_length@?$codecvt@DDH@std@@MBEHABHPBD1I@Z ENDP	; std::codecvt<char,char,int>::do_length
; Function compile flags: /Ogtp
_TEXT	ENDS
;	COMDAT ?do_unshift@?$codecvt@DDH@std@@MBEHAAHPAD1AAPAD@Z
_TEXT	SEGMENT
___formal$ = 8						; size = 4
__First2$ = 12						; size = 4
___formal$ = 16						; size = 4
__Mid2$ = 20						; size = 4
?do_unshift@?$codecvt@DDH@std@@MBEHAAHPAD1AAPAD@Z PROC	; std::codecvt<char,char,int>::do_unshift, COMDAT
; _this$ = ecx
; Line 883
	push	ebp
	mov	ebp, esp
; Line 884
	mov	eax, DWORD PTR __Mid2$[ebp]
	mov	ecx, DWORD PTR __First2$[ebp]
	mov	DWORD PTR [eax], ecx
; Line 885
	mov	eax, 3
; Line 886
	pop	ebp
	ret	16					; 00000010H
?do_unshift@?$codecvt@DDH@std@@MBEHAAHPAD1AAPAD@Z ENDP	; std::codecvt<char,char,int>::do_unshift
; Function compile flags: /Ogtp
_TEXT	ENDS
;	COMDAT ?do_out@?$codecvt@DDH@std@@MBEHAAHPBD1AAPBDPAD3AAPAD@Z
_TEXT	SEGMENT
___formal$ = 8						; size = 4
__First1$ = 12						; size = 4
___formal$ = 16						; size = 4
__Mid1$ = 20						; size = 4
__First2$ = 24						; size = 4
___formal$ = 28						; size = 4
__Mid2$ = 32						; size = 4
?do_out@?$codecvt@DDH@std@@MBEHAAHPBD1AAPBDPAD3AAPAD@Z PROC ; std::codecvt<char,char,int>::do_out, COMDAT
; _this$ = ecx
; Line 876
	push	ebp
	mov	ebp, esp
; Line 877
	mov	eax, DWORD PTR __Mid1$[ebp]
	mov	ecx, DWORD PTR __First1$[ebp]
	mov	edx, DWORD PTR __Mid2$[ebp]
	mov	DWORD PTR [eax], ecx
	mov	eax, DWORD PTR __First2$[ebp]
	mov	DWORD PTR [edx], eax
; Line 878
	mov	eax, 3
; Line 879
	pop	ebp
	ret	28					; 0000001cH
?do_out@?$codecvt@DDH@std@@MBEHAAHPBD1AAPBDPAD3AAPAD@Z ENDP ; std::codecvt<char,char,int>::do_out
; Function compile flags: /Ogtp
_TEXT	ENDS
;	COMDAT ?do_in@?$codecvt@DDH@std@@MBEHAAHPBD1AAPBDPAD3AAPAD@Z
_TEXT	SEGMENT
___formal$ = 8						; size = 4
__First1$ = 12						; size = 4
___formal$ = 16						; size = 4
__Mid1$ = 20						; size = 4
__First2$ = 24						; size = 4
___formal$ = 28						; size = 4
__Mid2$ = 32						; size = 4
?do_in@?$codecvt@DDH@std@@MBEHAAHPBD1AAPBDPAD3AAPAD@Z PROC ; std::codecvt<char,char,int>::do_in, COMDAT
; _this$ = ecx
; Line 868
	push	ebp
	mov	ebp, esp
; Line 869
	mov	eax, DWORD PTR __Mid1$[ebp]
	mov	ecx, DWORD PTR __First1$[ebp]
	mov	edx, DWORD PTR __Mid2$[ebp]
	mov	DWORD PTR [eax], ecx
	mov	eax, DWORD PTR __First2$[ebp]
	mov	DWORD PTR [edx], eax
; Line 870
	mov	eax, 3
; Line 871
	pop	ebp
	ret	28					; 0000001cH
?do_in@?$codecvt@DDH@std@@MBEHAAHPBD1AAPBDPAD3AAPAD@Z ENDP ; std::codecvt<char,char,int>::do_in
; Function compile flags: /Ogtp
_TEXT	ENDS
;	COMDAT ?out@?$codecvt@DDH@std@@QBEHAAHPBD1AAPBDPAD3AAPAD@Z
_TEXT	SEGMENT
__State$ = 8						; size = 4
__First1$ = 12						; size = 4
__Last1$ = 16						; size = 4
__Mid1$ = 20						; size = 4
__First2$ = 24						; size = 4
__Last2$ = 28						; size = 4
__Mid2$ = 32						; size = 4
?out@?$codecvt@DDH@std@@QBEHAAHPBD1AAPBDPAD3AAPAD@Z PROC ; std::codecvt<char,char,int>::out, COMDAT
; _this$ = ecx
; Line 816
	push	ebp
	mov	ebp, esp
; Line 818
	mov	eax, DWORD PTR [ecx]
	mov	eax, DWORD PTR [eax+20]
; Line 819
	pop	ebp
; Line 818
	jmp	eax
?out@?$codecvt@DDH@std@@QBEHAAHPBD1AAPBDPAD3AAPAD@Z ENDP ; std::codecvt<char,char,int>::out
; Function compile flags: /Ogtp
_TEXT	ENDS
;	COMDAT ?in@?$codecvt@DDH@std@@QBEHAAHPBD1AAPBDPAD3AAPAD@Z
_TEXT	SEGMENT
__State$ = 8						; size = 4
__First1$ = 12						; size = 4
__Last1$ = 16						; size = 4
__Mid1$ = 20						; size = 4
__First2$ = 24						; size = 4
__Last2$ = 28						; size = 4
__Mid2$ = 32						; size = 4
?in@?$codecvt@DDH@std@@QBEHAAHPBD1AAPBDPAD3AAPAD@Z PROC	; std::codecvt<char,char,int>::in, COMDAT
; _this$ = ecx
; Line 808
	push	ebp
	mov	ebp, esp
; Line 810
	mov	eax, DWORD PTR [ecx]
	mov	eax, DWORD PTR [eax+16]
; Line 811
	pop	ebp
; Line 810
	jmp	eax
?in@?$codecvt@DDH@std@@QBEHAAHPBD1AAPBDPAD3AAPAD@Z ENDP	; std::codecvt<char,char,int>::in
; Function compile flags: /Ogtp
_TEXT	ENDS
;	COMDAT ??B?$fpos@H@std@@QBE_JXZ
_TEXT	SEGMENT
??B?$fpos@H@std@@QBE_JXZ PROC				; std::fpos<int>::operator __int64, COMDAT
; _this$ = ecx
; File c:\program files\microsoft visual studio 10.0\vc\include\iosfwd
; Line 65
	mov	eax, DWORD PTR [ecx+8]
	cdq
	add	eax, DWORD PTR [ecx]
	adc	edx, DWORD PTR [ecx+4]
; Line 66
	ret	0
??B?$fpos@H@std@@QBE_JXZ ENDP				; std::fpos<int>::operator __int64
; Function compile flags: /Ogtp
_TEXT	ENDS
;	COMDAT ?seekpos@?$fpos@H@std@@QBE_JXZ
_TEXT	SEGMENT
?seekpos@?$fpos@H@std@@QBE_JXZ PROC			; std::fpos<int>::seekpos, COMDAT
; _this$ = ecx
; Line 60
	mov	eax, DWORD PTR [ecx+8]
	mov	edx, DWORD PTR [ecx+12]
; Line 61
	ret	0
?seekpos@?$fpos@H@std@@QBE_JXZ ENDP			; std::fpos<int>::seekpos
; Function compile flags: /Ogtp
_TEXT	ENDS
;	COMDAT ?state@?$fpos@H@std@@QBEHXZ
_TEXT	SEGMENT
?state@?$fpos@H@std@@QBEHXZ PROC			; std::fpos<int>::state, COMDAT
; _this$ = ecx
; Line 50
	mov	eax, DWORD PTR [ecx+16]
; Line 51
	ret	0
?state@?$fpos@H@std@@QBEHXZ ENDP			; std::fpos<int>::state
; Function compile flags: /Ogtp
_TEXT	ENDS
;	COMDAT ??0?$fpos@H@std@@QAE@H_J@Z
_TEXT	SEGMENT
__State$ = 8						; size = 4
__Fileposition$ = 12					; size = 8
??0?$fpos@H@std@@QAE@H_J@Z PROC				; std::fpos<int>::fpos<int>, COMDAT
; _this$ = ecx
; Line 45
	push	ebp
	mov	ebp, esp
	mov	edx, DWORD PTR __Fileposition$[ebp+4]
	mov	eax, ecx
	mov	ecx, DWORD PTR __Fileposition$[ebp]
	mov	DWORD PTR [eax+8], ecx
	mov	ecx, DWORD PTR __State$[ebp]
	mov	DWORD PTR [eax], 0
	mov	DWORD PTR [eax+4], 0
	mov	DWORD PTR [eax+12], edx
	mov	DWORD PTR [eax+16], ecx
; Line 46
	pop	ebp
	ret	12					; 0000000cH
??0?$fpos@H@std@@QAE@H_J@Z ENDP				; std::fpos<int>::fpos<int>
; Function compile flags: /Ogtp
_TEXT	ENDS
;	COMDAT ??0?$fpos@H@std@@QAE@_J@Z
_TEXT	SEGMENT
__Off$ = 8						; size = 8
??0?$fpos@H@std@@QAE@_J@Z PROC				; std::fpos<int>::fpos<int>, COMDAT
; _this$ = ecx
; Line 40
	push	ebp
	mov	ebp, esp
	mov	edx, DWORD PTR __Off$[ebp+4]
	mov	eax, ecx
	mov	ecx, DWORD PTR __Off$[ebp]
	mov	DWORD PTR [eax], ecx
	xor	ecx, ecx
	mov	DWORD PTR [eax+4], edx
	mov	DWORD PTR [eax+8], ecx
	mov	DWORD PTR [eax+12], ecx
	mov	DWORD PTR [eax+16], ecx
; Line 41
	pop	ebp
	ret	8
??0?$fpos@H@std@@QAE@_J@Z ENDP				; std::fpos<int>::fpos<int>
; Function compile flags: /Ogtp
_TEXT	ENDS
;	COMDAT ??Bsentry@?$basic_ostream@_WU?$char_traits@_W@std@@@std@@QBEPQ_Bool_struct@2@HXZ
_TEXT	SEGMENT
??Bsentry@?$basic_ostream@_WU?$char_traits@_W@std@@@std@@QBEPQ_Bool_struct@2@HXZ PROC ; std::basic_ostream<wchar_t,std::char_traits<wchar_t> >::sentry::operator int std::_Bool_struct::*, COMDAT
; _this$ = ecx
; File c:\program files\microsoft visual studio 10.0\vc\include\ostream
; Line 133
	xor	eax, eax
	cmp	BYTE PTR [ecx+4], al
	setne	al
	dec	eax
; Line 134
	ret	0
??Bsentry@?$basic_ostream@_WU?$char_traits@_W@std@@@std@@QBEPQ_Bool_struct@2@HXZ ENDP ; std::basic_ostream<wchar_t,std::char_traits<wchar_t> >::sentry::operator int std::_Bool_struct::*
; Function compile flags: /Ogtp
_TEXT	ENDS
;	COMDAT ?failed@?$ostreambuf_iterator@DU?$char_traits@D@std@@@std@@QBE_NXZ
_TEXT	SEGMENT
?failed@?$ostreambuf_iterator@DU?$char_traits@D@std@@@std@@QBE_NXZ PROC ; std::ostreambuf_iterator<char,std::char_traits<char> >::failed, COMDAT
; _this$ = eax
; File c:\program files\microsoft visual studio 10.0\vc\include\streambuf
; Line 647
	mov	al, BYTE PTR [eax]
; Line 648
	ret	0
?failed@?$ostreambuf_iterator@DU?$char_traits@D@std@@@std@@QBE_NXZ ENDP ; std::ostreambuf_iterator<char,std::char_traits<char> >::failed
; Function compile flags: /Ogtp
_TEXT	ENDS
;	COMDAT ??0?$ostreambuf_iterator@DU?$char_traits@D@std@@@std@@QAE@PAV?$basic_streambuf@DU?$char_traits@D@std@@@1@@Z
_TEXT	SEGMENT
??0?$ostreambuf_iterator@DU?$char_traits@D@std@@@std@@QAE@PAV?$basic_streambuf@DU?$char_traits@D@std@@@1@@Z PROC ; std::ostreambuf_iterator<char,std::char_traits<char> >::ostreambuf_iterator<char,std::char_traits<char> >, COMDAT
; _this$ = eax
; __Sb$ = ecx
; Line 613
	mov	BYTE PTR [eax], 0
	mov	DWORD PTR [eax+4], ecx
; Line 614
	ret	0
??0?$ostreambuf_iterator@DU?$char_traits@D@std@@@std@@QAE@PAV?$basic_streambuf@DU?$char_traits@D@std@@@1@@Z ENDP ; std::ostreambuf_iterator<char,std::char_traits<char> >::ostreambuf_iterator<char,std::char_traits<char> >
; Function compile flags: /Ogtp
_TEXT	ENDS
;	COMDAT ?put@?$num_put@DV?$ostreambuf_iterator@DU?$char_traits@D@std@@@std@@@std@@QBE?AV?$ostreambuf_iterator@DU?$char_traits@D@std@@@2@V32@AAVios_base@2@D_K@Z
_TEXT	SEGMENT
__Iosbase$ = 8						; size = 4
__Fill$ = 12						; size = 1
__Val$ = 16						; size = 8
__Dest$ = 24						; size = 8
?put@?$num_put@DV?$ostreambuf_iterator@DU?$char_traits@D@std@@@std@@@std@@QBE?AV?$ostreambuf_iterator@DU?$char_traits@D@std@@@2@V32@AAVios_base@2@D_K@Z PROC ; std::num_put<char,std::ostreambuf_iterator<char,std::char_traits<char> > >::put, COMDAT
; _this$ = ecx
; ___$ReturnUdt$ = esi
; File c:\program files\microsoft visual studio 10.0\vc\include\xlocnum
; Line 1117
	push	ebp
	mov	ebp, esp
; Line 1118
	mov	edx, DWORD PTR __Val$[ebp+4]
	mov	eax, DWORD PTR [ecx]
	mov	eax, DWORD PTR [eax+16]
	push	edx
	mov	edx, DWORD PTR __Val$[ebp]
	push	edx
	mov	edx, DWORD PTR __Fill$[ebp]
	push	edx
	mov	edx, DWORD PTR __Iosbase$[ebp]
	push	edx
	mov	edx, DWORD PTR __Dest$[ebp+4]
	push	edx
	mov	edx, DWORD PTR __Dest$[ebp]
	push	edx
	push	esi
	call	eax
	mov	eax, esi
; Line 1119
	pop	ebp
	ret	24					; 00000018H
?put@?$num_put@DV?$ostreambuf_iterator@DU?$char_traits@D@std@@@std@@@std@@QBE?AV?$ostreambuf_iterator@DU?$char_traits@D@std@@@2@V32@AAVios_base@2@D_K@Z ENDP ; std::num_put<char,std::ostreambuf_iterator<char,std::char_traits<char> > >::put
; Function compile flags: /Ogtp
_TEXT	ENDS
;	COMDAT ?put@?$num_put@DV?$ostreambuf_iterator@DU?$char_traits@D@std@@@std@@@std@@QBE?AV?$ostreambuf_iterator@DU?$char_traits@D@std@@@2@V32@AAVios_base@2@DK@Z
_TEXT	SEGMENT
__Iosbase$ = 8						; size = 4
__Fill$ = 12						; size = 1
__Dest$ = 16						; size = 8
?put@?$num_put@DV?$ostreambuf_iterator@DU?$char_traits@D@std@@@std@@@std@@QBE?AV?$ostreambuf_iterator@DU?$char_traits@D@std@@@2@V32@AAVios_base@2@DK@Z PROC ; std::num_put<char,std::ostreambuf_iterator<char,std::char_traits<char> > >::put, COMDAT
; _this$ = ecx
; ___$ReturnUdt$ = esi
; __Val$ = edx
; Line 1104
	push	ebp
	mov	ebp, esp
; Line 1105
	mov	eax, DWORD PTR [ecx]
	mov	eax, DWORD PTR [eax+24]
	push	edx
	mov	edx, DWORD PTR __Fill$[ebp]
	push	edx
	mov	edx, DWORD PTR __Iosbase$[ebp]
	push	edx
	mov	edx, DWORD PTR __Dest$[ebp+4]
	push	edx
	mov	edx, DWORD PTR __Dest$[ebp]
	push	edx
	push	esi
	call	eax
	mov	eax, esi
; Line 1106
	pop	ebp
	ret	16					; 00000010H
?put@?$num_put@DV?$ostreambuf_iterator@DU?$char_traits@D@std@@@std@@@std@@QBE?AV?$ostreambuf_iterator@DU?$char_traits@D@std@@@2@V32@AAVios_base@2@DK@Z ENDP ; std::num_put<char,std::ostreambuf_iterator<char,std::char_traits<char> > >::put
; Function compile flags: /Ogtp
_TEXT	ENDS
;	COMDAT ?put@?$num_put@DV?$ostreambuf_iterator@DU?$char_traits@D@std@@@std@@@std@@QBE?AV?$ostreambuf_iterator@DU?$char_traits@D@std@@@2@V32@AAVios_base@2@DJ@Z
_TEXT	SEGMENT
__Iosbase$ = 8						; size = 4
__Fill$ = 12						; size = 1
__Dest$ = 16						; size = 8
?put@?$num_put@DV?$ostreambuf_iterator@DU?$char_traits@D@std@@@std@@@std@@QBE?AV?$ostreambuf_iterator@DU?$char_traits@D@std@@@2@V32@AAVios_base@2@DJ@Z PROC ; std::num_put<char,std::ostreambuf_iterator<char,std::char_traits<char> > >::put, COMDAT
; _this$ = ecx
; ___$ReturnUdt$ = esi
; __Val$ = edx
; Line 1098
	push	ebp
	mov	ebp, esp
; Line 1099
	mov	eax, DWORD PTR [ecx]
	mov	eax, DWORD PTR [eax+28]
	push	edx
	mov	edx, DWORD PTR __Fill$[ebp]
	push	edx
	mov	edx, DWORD PTR __Iosbase$[ebp]
	push	edx
	mov	edx, DWORD PTR __Dest$[ebp+4]
	push	edx
	mov	edx, DWORD PTR __Dest$[ebp]
	push	edx
	push	esi
	call	eax
	mov	eax, esi
; Line 1100
	pop	ebp
	ret	16					; 00000010H
?put@?$num_put@DV?$ostreambuf_iterator@DU?$char_traits@D@std@@@std@@@std@@QBE?AV?$ostreambuf_iterator@DU?$char_traits@D@std@@@2@V32@AAVios_base@2@DJ@Z ENDP ; std::num_put<char,std::ostreambuf_iterator<char,std::char_traits<char> > >::put
; Function compile flags: /Ogtp
_TEXT	ENDS
;	COMDAT ??Bsentry@?$basic_ostream@DU?$char_traits@D@std@@@std@@QBEPQ_Bool_struct@2@HXZ
_TEXT	SEGMENT
??Bsentry@?$basic_ostream@DU?$char_traits@D@std@@@std@@QBEPQ_Bool_struct@2@HXZ PROC ; std::basic_ostream<char,std::char_traits<char> >::sentry::operator int std::_Bool_struct::*, COMDAT
; _this$ = ecx
; File c:\program files\microsoft visual studio 10.0\vc\include\ostream
; Line 133
	xor	eax, eax
	cmp	BYTE PTR [ecx+4], al
	setne	al
	dec	eax
; Line 134
	ret	0
??Bsentry@?$basic_ostream@DU?$char_traits@D@std@@@std@@QBEPQ_Bool_struct@2@HXZ ENDP ; std::basic_ostream<char,std::char_traits<char> >::sentry::operator int std::_Bool_struct::*
; Function compile flags: /Ogtp
_TEXT	ENDS
;	COMDAT ??D?$_String_iterator@DU?$char_traits@D@std@@V?$allocator@D@2@@std@@QBEAADXZ
_TEXT	SEGMENT
??D?$_String_iterator@DU?$char_traits@D@std@@V?$allocator@D@2@@std@@QBEAADXZ PROC ; std::_String_iterator<char,std::char_traits<char>,std::allocator<char> >::operator*, COMDAT
; _this$ = ecx
; File c:\program files\microsoft visual studio 10.0\vc\include\xstring
; Line 343
	mov	eax, DWORD PTR [ecx]
; Line 344
	ret	0
??D?$_String_iterator@DU?$char_traits@D@std@@V?$allocator@D@2@@std@@QBEAADXZ ENDP ; std::_String_iterator<char,std::char_traits<char>,std::allocator<char> >::operator*
; Function compile flags: /Ogtp
_TEXT	ENDS
;	COMDAT ??0?$allocator@_W@std@@QAE@ABV01@@Z
_TEXT	SEGMENT
??0?$allocator@_W@std@@QAE@ABV01@@Z PROC		; std::allocator<wchar_t>::allocator<wchar_t>, COMDAT
; _this$ = eax
; File c:\program files\microsoft visual studio 10.0\vc\include\xmemory
; Line 167
	ret	0
??0?$allocator@_W@std@@QAE@ABV01@@Z ENDP		; std::allocator<wchar_t>::allocator<wchar_t>
; Function compile flags: /Ogtp
_TEXT	ENDS
;	COMDAT ??0?$allocator@_W@std@@QAE@XZ
_TEXT	SEGMENT
??0?$allocator@_W@std@@QAE@XZ PROC			; std::allocator<wchar_t>::allocator<wchar_t>, COMDAT
; _this$ = eax
; Line 163
	ret	0
??0?$allocator@_W@std@@QAE@XZ ENDP			; std::allocator<wchar_t>::allocator<wchar_t>
; Function compile flags: /Ogtp
_TEXT	ENDS
;	COMDAT ??1?$_String_val@_WV?$allocator@_W@std@@@std@@QAE@XZ
_TEXT	SEGMENT
??1?$_String_val@_WV?$allocator@_W@std@@@std@@QAE@XZ PROC ; std::_String_val<wchar_t,std::allocator<wchar_t> >::~_String_val<wchar_t,std::allocator<wchar_t> >, COMDAT
; File c:\program files\microsoft visual studio 10.0\vc\include\xstring
; Line 459
	ret	0
??1?$_String_val@_WV?$allocator@_W@std@@@std@@QAE@XZ ENDP ; std::_String_val<wchar_t,std::allocator<wchar_t> >::~_String_val<wchar_t,std::allocator<wchar_t> >
; Function compile flags: /Ogtp
_TEXT	ENDS
;	COMDAT ??0?$_String_val@_WV?$allocator@_W@std@@@std@@QAE@V?$allocator@_W@1@@Z
_TEXT	SEGMENT
__Al$ = 8						; size = 1
??0?$_String_val@_WV?$allocator@_W@std@@@std@@QAE@V?$allocator@_W@1@@Z PROC ; std::_String_val<wchar_t,std::allocator<wchar_t> >::_String_val<wchar_t,std::allocator<wchar_t> >, COMDAT
; _this$ = eax
; Line 455
	ret	4
??0?$_String_val@_WV?$allocator@_W@std@@@std@@QAE@V?$allocator@_W@1@@Z ENDP ; std::_String_val<wchar_t,std::allocator<wchar_t> >::_String_val<wchar_t,std::allocator<wchar_t> >
; Function compile flags: /Ogtp
_TEXT	ENDS
;	COMDAT ?_Myptr@?$basic_string@_WU?$char_traits@_W@std@@V?$allocator@_W@2@@std@@QBEPB_WXZ
_TEXT	SEGMENT
?_Myptr@?$basic_string@_WU?$char_traits@_W@std@@V?$allocator@_W@2@@std@@QBEPB_WXZ PROC ; std::basic_string<wchar_t,std::char_traits<wchar_t>,std::allocator<wchar_t> >::_Myptr, COMDAT
; _this$ = eax
; Line 2011
	cmp	DWORD PTR [eax+20], 8
	jb	SHORT $LN4@Myptr
	mov	eax, DWORD PTR [eax]
$LN4@Myptr:
; Line 2012
	ret	0
?_Myptr@?$basic_string@_WU?$char_traits@_W@std@@V?$allocator@_W@2@@std@@QBEPB_WXZ ENDP ; std::basic_string<wchar_t,std::char_traits<wchar_t>,std::allocator<wchar_t> >::_Myptr
; Function compile flags: /Ogtp
_TEXT	ENDS
;	COMDAT ?_Myptr@?$basic_string@_WU?$char_traits@_W@std@@V?$allocator@_W@2@@std@@QAEPA_WXZ
_TEXT	SEGMENT
?_Myptr@?$basic_string@_WU?$char_traits@_W@std@@V?$allocator@_W@2@@std@@QAEPA_WXZ PROC ; std::basic_string<wchar_t,std::char_traits<wchar_t>,std::allocator<wchar_t> >::_Myptr, COMDAT
; _this$ = eax
; Line 2005
	cmp	DWORD PTR [eax+20], 8
	jb	SHORT $LN4@Myptr@2
	mov	eax, DWORD PTR [eax]
$LN4@Myptr@2:
; Line 2006
	ret	0
?_Myptr@?$basic_string@_WU?$char_traits@_W@std@@V?$allocator@_W@2@@std@@QAEPA_WXZ ENDP ; std::basic_string<wchar_t,std::char_traits<wchar_t>,std::allocator<wchar_t> >::_Myptr
; Function compile flags: /Ogtp
_TEXT	ENDS
;	COMDAT ?_Pnavail@?$basic_streambuf@_WU?$char_traits@_W@std@@@std@@IBE_JXZ
_TEXT	SEGMENT
?_Pnavail@?$basic_streambuf@_WU?$char_traits@_W@std@@@std@@IBE_JXZ PROC ; std::basic_streambuf<wchar_t,std::char_traits<wchar_t> >::_Pnavail, COMDAT
; _this$ = ecx
; File c:\program files\microsoft visual studio 10.0\vc\include\streambuf
; Line 310
	mov	eax, DWORD PTR [ecx+36]
	cmp	DWORD PTR [eax], 0
	je	SHORT $LN3@Pnavail
	mov	ecx, DWORD PTR [ecx+52]
	mov	eax, DWORD PTR [ecx]
	cdq
; Line 311
	ret	0
$LN3@Pnavail:
; Line 310
	xor	eax, eax
	cdq
; Line 311
	ret	0
?_Pnavail@?$basic_streambuf@_WU?$char_traits@_W@std@@@std@@IBE_JXZ ENDP ; std::basic_streambuf<wchar_t,std::char_traits<wchar_t> >::_Pnavail
; Function compile flags: /Ogtp
_TEXT	ENDS
;	COMDAT ?pubsync@?$basic_streambuf@_WU?$char_traits@_W@std@@@std@@QAEHXZ
_TEXT	SEGMENT
?pubsync@?$basic_streambuf@_WU?$char_traits@_W@std@@@std@@QAEHXZ PROC ; std::basic_streambuf<wchar_t,std::char_traits<wchar_t> >::pubsync, COMDAT
; _this$ = ecx
; Line 141
	mov	eax, DWORD PTR [ecx]
	mov	edx, DWORD PTR [eax+52]
	jmp	edx
?pubsync@?$basic_streambuf@_WU?$char_traits@_W@std@@@std@@QAEHXZ ENDP ; std::basic_streambuf<wchar_t,std::char_traits<wchar_t> >::pubsync
; Function compile flags: /Ogtp
_TEXT	ENDS
;	COMDAT ?_Pnavail@?$basic_streambuf@DU?$char_traits@D@std@@@std@@IBE_JXZ
_TEXT	SEGMENT
?_Pnavail@?$basic_streambuf@DU?$char_traits@D@std@@@std@@IBE_JXZ PROC ; std::basic_streambuf<char,std::char_traits<char> >::_Pnavail, COMDAT
; _this$ = ecx
; Line 310
	mov	eax, DWORD PTR [ecx+36]
	cmp	DWORD PTR [eax], 0
	je	SHORT $LN3@Pnavail@2
	mov	ecx, DWORD PTR [ecx+52]
	mov	eax, DWORD PTR [ecx]
	cdq
; Line 311
	ret	0
$LN3@Pnavail@2:
; Line 310
	xor	eax, eax
	cdq
; Line 311
	ret	0
?_Pnavail@?$basic_streambuf@DU?$char_traits@D@std@@@std@@IBE_JXZ ENDP ; std::basic_streambuf<char,std::char_traits<char> >::_Pnavail
; Function compile flags: /Ogtp
_TEXT	ENDS
;	COMDAT ?_Pninc@?$basic_streambuf@DU?$char_traits@D@std@@@std@@IAEPADXZ
_TEXT	SEGMENT
?_Pninc@?$basic_streambuf@DU?$char_traits@D@std@@@std@@IAEPADXZ PROC ; std::basic_streambuf<char,std::char_traits<char> >::_Pninc, COMDAT
; _this$ = ecx
; Line 304
	mov	eax, DWORD PTR [ecx+52]
	dec	DWORD PTR [eax]
; Line 305
	mov	ecx, DWORD PTR [ecx+36]
	mov	eax, DWORD PTR [ecx]
	lea	edx, DWORD PTR [eax+1]
	mov	DWORD PTR [ecx], edx
; Line 306
	ret	0
?_Pninc@?$basic_streambuf@DU?$char_traits@D@std@@@std@@IAEPADXZ ENDP ; std::basic_streambuf<char,std::char_traits<char> >::_Pninc
; Function compile flags: /Ogtp
_TEXT	ENDS
;	COMDAT ?pbump@?$basic_streambuf@DU?$char_traits@D@std@@@std@@IAEXH@Z
_TEXT	SEGMENT
__Off$ = 8						; size = 4
?pbump@?$basic_streambuf@DU?$char_traits@D@std@@@std@@IAEXH@Z PROC ; std::basic_streambuf<char,std::char_traits<char> >::pbump, COMDAT
; _this$ = ecx
; Line 283
	push	ebp
	mov	ebp, esp
; Line 284
	mov	eax, DWORD PTR [ecx+52]
	mov	edx, DWORD PTR __Off$[ebp]
	sub	DWORD PTR [eax], edx
; Line 285
	mov	ecx, DWORD PTR [ecx+36]
	add	DWORD PTR [ecx], edx
; Line 286
	pop	ebp
	ret	4
?pbump@?$basic_streambuf@DU?$char_traits@D@std@@@std@@IAEXH@Z ENDP ; std::basic_streambuf<char,std::char_traits<char> >::pbump
; Function compile flags: /Ogtp
_TEXT	ENDS
;	COMDAT ?_Gnavail@?$basic_streambuf@DU?$char_traits@D@std@@@std@@IBE_JXZ
_TEXT	SEGMENT
?_Gnavail@?$basic_streambuf@DU?$char_traits@D@std@@@std@@IBE_JXZ PROC ; std::basic_streambuf<char,std::char_traits<char> >::_Gnavail, COMDAT
; _this$ = ecx
; Line 279
	mov	eax, DWORD PTR [ecx+32]
	cmp	DWORD PTR [eax], 0
	je	SHORT $LN3@Gnavail
	mov	ecx, DWORD PTR [ecx+48]
	mov	eax, DWORD PTR [ecx]
	cdq
; Line 280
	ret	0
$LN3@Gnavail:
; Line 279
	xor	eax, eax
	cdq
; Line 280
	ret	0
?_Gnavail@?$basic_streambuf@DU?$char_traits@D@std@@@std@@IBE_JXZ ENDP ; std::basic_streambuf<char,std::char_traits<char> >::_Gnavail
; Function compile flags: /Ogtp
_TEXT	ENDS
;	COMDAT ?_Gnpreinc@?$basic_streambuf@DU?$char_traits@D@std@@@std@@IAEPADXZ
_TEXT	SEGMENT
?_Gnpreinc@?$basic_streambuf@DU?$char_traits@D@std@@@std@@IAEPADXZ PROC ; std::basic_streambuf<char,std::char_traits<char> >::_Gnpreinc, COMDAT
; _this$ = ecx
; Line 273
	mov	eax, DWORD PTR [ecx+48]
	dec	DWORD PTR [eax]
; Line 274
	mov	ecx, DWORD PTR [ecx+32]
	mov	eax, DWORD PTR [ecx]
	inc	eax
	mov	DWORD PTR [ecx], eax
; Line 275
	ret	0
?_Gnpreinc@?$basic_streambuf@DU?$char_traits@D@std@@@std@@IAEPADXZ ENDP ; std::basic_streambuf<char,std::char_traits<char> >::_Gnpreinc
; Function compile flags: /Ogtp
_TEXT	ENDS
;	COMDAT ?_Gninc@?$basic_streambuf@DU?$char_traits@D@std@@@std@@IAEPADXZ
_TEXT	SEGMENT
?_Gninc@?$basic_streambuf@DU?$char_traits@D@std@@@std@@IAEPADXZ PROC ; std::basic_streambuf<char,std::char_traits<char> >::_Gninc, COMDAT
; _this$ = ecx
; Line 267
	mov	eax, DWORD PTR [ecx+48]
	dec	DWORD PTR [eax]
; Line 268
	mov	ecx, DWORD PTR [ecx+32]
	mov	eax, DWORD PTR [ecx]
	lea	edx, DWORD PTR [eax+1]
	mov	DWORD PTR [ecx], edx
; Line 269
	ret	0
?_Gninc@?$basic_streambuf@DU?$char_traits@D@std@@@std@@IAEPADXZ ENDP ; std::basic_streambuf<char,std::char_traits<char> >::_Gninc
; Function compile flags: /Ogtp
_TEXT	ENDS
;	COMDAT ?_Gndec@?$basic_streambuf@DU?$char_traits@D@std@@@std@@IAEPADXZ
_TEXT	SEGMENT
?_Gndec@?$basic_streambuf@DU?$char_traits@D@std@@@std@@IAEPADXZ PROC ; std::basic_streambuf<char,std::char_traits<char> >::_Gndec, COMDAT
; _this$ = ecx
; Line 261
	mov	eax, DWORD PTR [ecx+48]
	inc	DWORD PTR [eax]
; Line 262
	mov	ecx, DWORD PTR [ecx+32]
	mov	eax, DWORD PTR [ecx]
	dec	eax
	mov	DWORD PTR [ecx], eax
; Line 263
	ret	0
?_Gndec@?$basic_streambuf@DU?$char_traits@D@std@@@std@@IAEPADXZ ENDP ; std::basic_streambuf<char,std::char_traits<char> >::_Gndec
; Function compile flags: /Ogtp
_TEXT	ENDS
;	COMDAT ?epptr@?$basic_streambuf@DU?$char_traits@D@std@@@std@@IBEPADXZ
_TEXT	SEGMENT
?epptr@?$basic_streambuf@DU?$char_traits@D@std@@@std@@IBEPADXZ PROC ; std::basic_streambuf<char,std::char_traits<char> >::epptr, COMDAT
; _this$ = ecx
; Line 256
	mov	eax, DWORD PTR [ecx+52]
	mov	ecx, DWORD PTR [ecx+36]
	mov	eax, DWORD PTR [eax]
	add	eax, DWORD PTR [ecx]
; Line 257
	ret	0
?epptr@?$basic_streambuf@DU?$char_traits@D@std@@@std@@IBEPADXZ ENDP ; std::basic_streambuf<char,std::char_traits<char> >::epptr
; Function compile flags: /Ogtp
_TEXT	ENDS
;	COMDAT ?gbump@?$basic_streambuf@DU?$char_traits@D@std@@@std@@IAEXH@Z
_TEXT	SEGMENT
__Off$ = 8						; size = 4
?gbump@?$basic_streambuf@DU?$char_traits@D@std@@@std@@IAEXH@Z PROC ; std::basic_streambuf<char,std::char_traits<char> >::gbump, COMDAT
; _this$ = ecx
; Line 242
	push	ebp
	mov	ebp, esp
; Line 243
	mov	eax, DWORD PTR [ecx+48]
	mov	edx, DWORD PTR __Off$[ebp]
	sub	DWORD PTR [eax], edx
; Line 244
	mov	ecx, DWORD PTR [ecx+32]
	add	DWORD PTR [ecx], edx
; Line 245
	pop	ebp
	ret	4
?gbump@?$basic_streambuf@DU?$char_traits@D@std@@@std@@IAEXH@Z ENDP ; std::basic_streambuf<char,std::char_traits<char> >::gbump
; Function compile flags: /Ogtp
_TEXT	ENDS
;	COMDAT ?egptr@?$basic_streambuf@DU?$char_traits@D@std@@@std@@IBEPADXZ
_TEXT	SEGMENT
?egptr@?$basic_streambuf@DU?$char_traits@D@std@@@std@@IBEPADXZ PROC ; std::basic_streambuf<char,std::char_traits<char> >::egptr, COMDAT
; _this$ = ecx
; Line 238
	mov	eax, DWORD PTR [ecx+48]
	mov	ecx, DWORD PTR [ecx+32]
	mov	eax, DWORD PTR [eax]
	add	eax, DWORD PTR [ecx]
; Line 239
	ret	0
?egptr@?$basic_streambuf@DU?$char_traits@D@std@@@std@@IBEPADXZ ENDP ; std::basic_streambuf<char,std::char_traits<char> >::egptr
; Function compile flags: /Ogtp
_TEXT	ENDS
;	COMDAT ?pptr@?$basic_streambuf@DU?$char_traits@D@std@@@std@@IBEPADXZ
_TEXT	SEGMENT
?pptr@?$basic_streambuf@DU?$char_traits@D@std@@@std@@IBEPADXZ PROC ; std::basic_streambuf<char,std::char_traits<char> >::pptr, COMDAT
; _this$ = ecx
; Line 233
	mov	eax, DWORD PTR [ecx+36]
	mov	eax, DWORD PTR [eax]
; Line 234
	ret	0
?pptr@?$basic_streambuf@DU?$char_traits@D@std@@@std@@IBEPADXZ ENDP ; std::basic_streambuf<char,std::char_traits<char> >::pptr
; Function compile flags: /Ogtp
_TEXT	ENDS
;	COMDAT ?gptr@?$basic_streambuf@DU?$char_traits@D@std@@@std@@IBEPADXZ
_TEXT	SEGMENT
?gptr@?$basic_streambuf@DU?$char_traits@D@std@@@std@@IBEPADXZ PROC ; std::basic_streambuf<char,std::char_traits<char> >::gptr, COMDAT
; _this$ = ecx
; Line 223
	mov	eax, DWORD PTR [ecx+32]
	mov	eax, DWORD PTR [eax]
; Line 224
	ret	0
?gptr@?$basic_streambuf@DU?$char_traits@D@std@@@std@@IBEPADXZ ENDP ; std::basic_streambuf<char,std::char_traits<char> >::gptr
; Function compile flags: /Ogtp
_TEXT	ENDS
;	COMDAT ?eback@?$basic_streambuf@DU?$char_traits@D@std@@@std@@IBEPADXZ
_TEXT	SEGMENT
?eback@?$basic_streambuf@DU?$char_traits@D@std@@@std@@IBEPADXZ PROC ; std::basic_streambuf<char,std::char_traits<char> >::eback, COMDAT
; _this$ = ecx
; Line 218
	mov	eax, DWORD PTR [ecx+16]
	mov	eax, DWORD PTR [eax]
; Line 219
	ret	0
?eback@?$basic_streambuf@DU?$char_traits@D@std@@@std@@IBEPADXZ ENDP ; std::basic_streambuf<char,std::char_traits<char> >::eback
; Function compile flags: /Ogtp
_TEXT	ENDS
;	COMDAT ?pubsync@?$basic_streambuf@DU?$char_traits@D@std@@@std@@QAEHXZ
_TEXT	SEGMENT
?pubsync@?$basic_streambuf@DU?$char_traits@D@std@@@std@@QAEHXZ PROC ; std::basic_streambuf<char,std::char_traits<char> >::pubsync, COMDAT
; _this$ = ecx
; Line 141
	mov	eax, DWORD PTR [ecx]
	mov	edx, DWORD PTR [eax+52]
	jmp	edx
?pubsync@?$basic_streambuf@DU?$char_traits@D@std@@@std@@QAEHXZ ENDP ; std::basic_streambuf<char,std::char_traits<char> >::pubsync
; Function compile flags: /Ogtp
_TEXT	ENDS
;	COMDAT ?fill@?$basic_ios@DU?$char_traits@D@std@@@std@@QBEDXZ
_TEXT	SEGMENT
?fill@?$basic_ios@DU?$char_traits@D@std@@@std@@QBEDXZ PROC ; std::basic_ios<char,std::char_traits<char> >::fill, COMDAT
; _this$ = eax
; File c:\program files\microsoft visual studio 10.0\vc\include\ios
; Line 107
	mov	al, BYTE PTR [eax+64]
; Line 108
	ret	0
?fill@?$basic_ios@DU?$char_traits@D@std@@@std@@QBEDXZ ENDP ; std::basic_ios<char,std::char_traits<char> >::fill
; Function compile flags: /Ogtp
_TEXT	ENDS
;	COMDAT ?_Tidy@?$_Yarn@D@std@@AAEXXZ
_TEXT	SEGMENT
?_Tidy@?$_Yarn@D@std@@AAEXXZ PROC			; std::_Yarn<char>::_Tidy, COMDAT
; _this$ = ecx
; File c:\program files\microsoft visual studio 10.0\vc\include\xutility
; Line 3391
	push	esi
	mov	esi, ecx
; Line 3392
	mov	eax, DWORD PTR [esi]
	test	eax, eax
	je	SHORT $LN4@Tidy
; Line 3398
	push	eax
	call	_free
	add	esp, 4
$LN4@Tidy:
; Line 3401
	mov	DWORD PTR [esi], 0
	pop	esi
; Line 3402
	ret	0
?_Tidy@?$_Yarn@D@std@@AAEXXZ ENDP			; std::_Yarn<char>::_Tidy
; Function compile flags: /Ogtp
_TEXT	ENDS
;	COMDAT ??0?$allocator@D@std@@QAE@ABV01@@Z
_TEXT	SEGMENT
___formal$ = 8						; size = 4
??0?$allocator@D@std@@QAE@ABV01@@Z PROC			; std::allocator<char>::allocator<char>, COMDAT
; _this$ = ecx
; File c:\program files\microsoft visual studio 10.0\vc\include\xmemory
; Line 165
	mov	eax, ecx
; Line 167
	ret	4
??0?$allocator@D@std@@QAE@ABV01@@Z ENDP			; std::allocator<char>::allocator<char>
; Function compile flags: /Ogtp
_TEXT	ENDS
;	COMDAT ??0?$allocator@D@std@@QAE@XZ
_TEXT	SEGMENT
??0?$allocator@D@std@@QAE@XZ PROC			; std::allocator<char>::allocator<char>, COMDAT
; _this$ = ecx
; Line 161
	mov	eax, ecx
; Line 163
	ret	0
??0?$allocator@D@std@@QAE@XZ ENDP			; std::allocator<char>::allocator<char>
; Function compile flags: /Ogtp
_TEXT	ENDS
;	COMDAT ??1?$_String_val@DV?$allocator@D@std@@@std@@QAE@XZ
_TEXT	SEGMENT
??1?$_String_val@DV?$allocator@D@std@@@std@@QAE@XZ PROC	; std::_String_val<char,std::allocator<char> >::~_String_val<char,std::allocator<char> >, COMDAT
; _this$ = ecx
; File c:\program files\microsoft visual studio 10.0\vc\include\xstring
; Line 459
	ret	0
??1?$_String_val@DV?$allocator@D@std@@@std@@QAE@XZ ENDP	; std::_String_val<char,std::allocator<char> >::~_String_val<char,std::allocator<char> >
; Function compile flags: /Ogtp
_TEXT	ENDS
;	COMDAT ??0?$_String_val@DV?$allocator@D@std@@@std@@QAE@V?$allocator@D@1@@Z
_TEXT	SEGMENT
__Al$ = 8						; size = 1
??0?$_String_val@DV?$allocator@D@std@@@std@@QAE@V?$allocator@D@1@@Z PROC ; std::_String_val<char,std::allocator<char> >::_String_val<char,std::allocator<char> >, COMDAT
; _this$ = ecx
; Line 454
	mov	eax, ecx
; Line 455
	ret	4
??0?$_String_val@DV?$allocator@D@std@@@std@@QAE@V?$allocator@D@1@@Z ENDP ; std::_String_val<char,std::allocator<char> >::_String_val<char,std::allocator<char> >
; Function compile flags: /Ogtp
_TEXT	ENDS
;	COMDAT ?_Myptr@?$basic_string@DU?$char_traits@D@std@@V?$allocator@D@2@@std@@QBEPBDXZ
_TEXT	SEGMENT
?_Myptr@?$basic_string@DU?$char_traits@D@std@@V?$allocator@D@2@@std@@QBEPBDXZ PROC ; std::basic_string<char,std::char_traits<char>,std::allocator<char> >::_Myptr, COMDAT
; _this$ = ecx
; Line 2009
	mov	eax, ecx
; Line 2011
	cmp	DWORD PTR [eax+20], 16			; 00000010H
	jb	SHORT $LN4@Myptr@3
	mov	eax, DWORD PTR [eax]
$LN4@Myptr@3:
; Line 2012
	ret	0
?_Myptr@?$basic_string@DU?$char_traits@D@std@@V?$allocator@D@2@@std@@QBEPBDXZ ENDP ; std::basic_string<char,std::char_traits<char>,std::allocator<char> >::_Myptr
; Function compile flags: /Ogtp
_TEXT	ENDS
;	COMDAT ?_Myptr@?$basic_string@DU?$char_traits@D@std@@V?$allocator@D@2@@std@@QAEPADXZ
_TEXT	SEGMENT
?_Myptr@?$basic_string@DU?$char_traits@D@std@@V?$allocator@D@2@@std@@QAEPADXZ PROC ; std::basic_string<char,std::char_traits<char>,std::allocator<char> >::_Myptr, COMDAT
; _this$ = ecx
; Line 2003
	mov	eax, ecx
; Line 2005
	cmp	DWORD PTR [eax+20], 16			; 00000010H
	jb	SHORT $LN4@Myptr@4
	mov	eax, DWORD PTR [eax]
$LN4@Myptr@4:
; Line 2006
	ret	0
?_Myptr@?$basic_string@DU?$char_traits@D@std@@V?$allocator@D@2@@std@@QAEPADXZ ENDP ; std::basic_string<char,std::char_traits<char>,std::allocator<char> >::_Myptr
; Function compile flags: /Ogtp
_TEXT	ENDS
;	COMDAT ?get_allocator@?$basic_string@DU?$char_traits@D@std@@V?$allocator@D@2@@std@@QBE?AV?$allocator@D@2@XZ
_TEXT	SEGMENT
?get_allocator@?$basic_string@DU?$char_traits@D@std@@V?$allocator@D@2@@std@@QBE?AV?$allocator@D@2@XZ PROC ; std::basic_string<char,std::char_traits<char>,std::allocator<char> >::get_allocator, COMDAT
; ___$ReturnUdt$ = eax
; Line 1908
	ret	0
?get_allocator@?$basic_string@DU?$char_traits@D@std@@V?$allocator@D@2@@std@@QBE?AV?$allocator@D@2@XZ ENDP ; std::basic_string<char,std::char_traits<char>,std::allocator<char> >::get_allocator
; Function compile flags: /Ogtp
_TEXT	ENDS
;	COMDAT ?_Unlock@?$basic_filebuf@DU?$char_traits@D@std@@@std@@UAEXXZ
_TEXT	SEGMENT
?_Unlock@?$basic_filebuf@DU?$char_traits@D@std@@@std@@UAEXXZ PROC ; std::basic_filebuf<char,std::char_traits<char> >::_Unlock, COMDAT
; _this$ = ecx
; File c:\program files\microsoft visual studio 10.0\vc\include\fstream
; Line 315
	mov	eax, DWORD PTR [ecx+84]
	test	eax, eax
	je	SHORT $LN1@Unlock
; Line 316
	push	eax
	call	__unlock_file
	pop	ecx
$LN1@Unlock:
; Line 317
	ret	0
?_Unlock@?$basic_filebuf@DU?$char_traits@D@std@@@std@@UAEXXZ ENDP ; std::basic_filebuf<char,std::char_traits<char> >::_Unlock
; Function compile flags: /Ogtp
_TEXT	ENDS
;	COMDAT ?_Lock@?$basic_filebuf@DU?$char_traits@D@std@@@std@@UAEXXZ
_TEXT	SEGMENT
?_Lock@?$basic_filebuf@DU?$char_traits@D@std@@@std@@UAEXXZ PROC ; std::basic_filebuf<char,std::char_traits<char> >::_Lock, COMDAT
; _this$ = ecx
; Line 309
	mov	eax, DWORD PTR [ecx+84]
	test	eax, eax
	je	SHORT $LN1@Lock
; Line 310
	push	eax
	call	__lock_file
	pop	ecx
$LN1@Lock:
; Line 311
	ret	0
?_Lock@?$basic_filebuf@DU?$char_traits@D@std@@@std@@UAEXXZ ENDP ; std::basic_filebuf<char,std::char_traits<char> >::_Lock
; Function compile flags: /Ogtp
_TEXT	ENDS
;	COMDAT ?c_str@?$basic_string@_WU?$char_traits@_W@std@@V?$allocator@_W@2@@std@@QBEPB_WXZ
_TEXT	SEGMENT
?c_str@?$basic_string@_WU?$char_traits@_W@std@@V?$allocator@_W@2@@std@@QBEPB_WXZ PROC ; std::basic_string<wchar_t,std::char_traits<wchar_t>,std::allocator<wchar_t> >::c_str, COMDAT
; _this$ = eax
; File c:\program files\microsoft visual studio 10.0\vc\include\xstring
; Line 1497
	cmp	DWORD PTR [eax+20], 8
	jb	SHORT $LN6@c_str
	mov	eax, DWORD PTR [eax]
$LN6@c_str:
; Line 1498
	ret	0
?c_str@?$basic_string@_WU?$char_traits@_W@std@@V?$allocator@_W@2@@std@@QBEPB_WXZ ENDP ; std::basic_string<wchar_t,std::char_traits<wchar_t>,std::allocator<wchar_t> >::c_str
; Function compile flags: /Ogtp
_TEXT	ENDS
;	COMDAT ?imbue@?$basic_streambuf@DU?$char_traits@D@std@@@std@@MAEXABVlocale@2@@Z
_TEXT	SEGMENT
___formal$ = 8						; size = 4
?imbue@?$basic_streambuf@DU?$char_traits@D@std@@@std@@MAEXABVlocale@2@@Z PROC ; std::basic_streambuf<char,std::char_traits<char> >::imbue, COMDAT
; _this$ = ecx
; File c:\program files\microsoft visual studio 10.0\vc\include\streambuf
; Line 445
	ret	4
?imbue@?$basic_streambuf@DU?$char_traits@D@std@@@std@@MAEXABVlocale@2@@Z ENDP ; std::basic_streambuf<char,std::char_traits<char> >::imbue
; Function compile flags: /Ogtp
_TEXT	ENDS
;	COMDAT ?sync@?$basic_streambuf@DU?$char_traits@D@std@@@std@@MAEHXZ
_TEXT	SEGMENT
?sync@?$basic_streambuf@DU?$char_traits@D@std@@@std@@MAEHXZ PROC ; std::basic_streambuf<char,std::char_traits<char> >::sync, COMDAT
; _this$ = ecx
; Line 440
	xor	eax, eax
; Line 441
	ret	0
?sync@?$basic_streambuf@DU?$char_traits@D@std@@@std@@MAEHXZ ENDP ; std::basic_streambuf<char,std::char_traits<char> >::sync
; Function compile flags: /Ogtp
_TEXT	ENDS
;	COMDAT ?setbuf@?$basic_streambuf@DU?$char_traits@D@std@@@std@@MAEPAV12@PAD_J@Z
_TEXT	SEGMENT
___formal$ = 8						; size = 4
___formal$ = 12						; size = 8
?setbuf@?$basic_streambuf@DU?$char_traits@D@std@@@std@@MAEPAV12@PAD_J@Z PROC ; std::basic_streambuf<char,std::char_traits<char> >::setbuf, COMDAT
; _this$ = ecx
; Line 434
	mov	eax, ecx
; Line 436
	ret	12					; 0000000cH
?setbuf@?$basic_streambuf@DU?$char_traits@D@std@@@std@@MAEPAV12@PAD_J@Z ENDP ; std::basic_streambuf<char,std::char_traits<char> >::setbuf
; Function compile flags: /Ogtp
_TEXT	ENDS
;	COMDAT ?seekpos@?$basic_streambuf@DU?$char_traits@D@std@@@std@@MAE?AV?$fpos@H@2@V32@H@Z
_TEXT	SEGMENT
___$ReturnUdt$ = 8					; size = 4
___formal$ = 12						; size = 24
___formal$ = 36						; size = 4
?seekpos@?$basic_streambuf@DU?$char_traits@D@std@@@std@@MAE?AV?$fpos@H@2@V32@H@Z PROC ; std::basic_streambuf<char,std::char_traits<char> >::seekpos, COMDAT
; _this$ = ecx
; Line 429
	push	ebp
	mov	ebp, esp
; Line 430
	mov	eax, DWORD PTR ___$ReturnUdt$[ebp]
	mov	ecx, DWORD PTR ?_BADOFF@std@@3_JB
	mov	edx, DWORD PTR ?_BADOFF@std@@3_JB+4
	mov	DWORD PTR [eax], ecx
	xor	ecx, ecx
	mov	DWORD PTR [eax+4], edx
	mov	DWORD PTR [eax+8], ecx
	mov	DWORD PTR [eax+12], ecx
	mov	DWORD PTR [eax+16], ecx
; Line 431
	pop	ebp
	ret	32					; 00000020H
?seekpos@?$basic_streambuf@DU?$char_traits@D@std@@@std@@MAE?AV?$fpos@H@2@V32@H@Z ENDP ; std::basic_streambuf<char,std::char_traits<char> >::seekpos
; Function compile flags: /Ogtp
_TEXT	ENDS
;	COMDAT ?seekoff@?$basic_streambuf@DU?$char_traits@D@std@@@std@@MAE?AV?$fpos@H@2@_JHH@Z
_TEXT	SEGMENT
___$ReturnUdt$ = 8					; size = 4
___formal$ = 12						; size = 8
___formal$ = 20						; size = 4
___formal$ = 24						; size = 4
?seekoff@?$basic_streambuf@DU?$char_traits@D@std@@@std@@MAE?AV?$fpos@H@2@_JHH@Z PROC ; std::basic_streambuf<char,std::char_traits<char> >::seekoff, COMDAT
; _this$ = ecx
; Line 423
	push	ebp
	mov	ebp, esp
; Line 424
	mov	eax, DWORD PTR ___$ReturnUdt$[ebp]
	mov	ecx, DWORD PTR ?_BADOFF@std@@3_JB
	mov	edx, DWORD PTR ?_BADOFF@std@@3_JB+4
	mov	DWORD PTR [eax], ecx
	xor	ecx, ecx
	mov	DWORD PTR [eax+4], edx
	mov	DWORD PTR [eax+8], ecx
	mov	DWORD PTR [eax+12], ecx
	mov	DWORD PTR [eax+16], ecx
; Line 425
	pop	ebp
	ret	20					; 00000014H
?seekoff@?$basic_streambuf@DU?$char_traits@D@std@@@std@@MAE?AV?$fpos@H@2@_JHH@Z ENDP ; std::basic_streambuf<char,std::char_traits<char> >::seekoff
; Function compile flags: /Ogtp
_TEXT	ENDS
;	COMDAT ?showmanyc@?$basic_streambuf@DU?$char_traits@D@std@@@std@@MAE_JXZ
_TEXT	SEGMENT
?showmanyc@?$basic_streambuf@DU?$char_traits@D@std@@@std@@MAE_JXZ PROC ; std::basic_streambuf<char,std::char_traits<char> >::showmanyc, COMDAT
; _this$ = ecx
; Line 348
	xor	eax, eax
	xor	edx, edx
; Line 349
	ret	0
?showmanyc@?$basic_streambuf@DU?$char_traits@D@std@@@std@@MAE_JXZ ENDP ; std::basic_streambuf<char,std::char_traits<char> >::showmanyc
; Function compile flags: /Ogtp
_TEXT	ENDS
;	COMDAT ?_Unlock@?$basic_streambuf@DU?$char_traits@D@std@@@std@@UAEXXZ
_TEXT	SEGMENT
?_Unlock@?$basic_streambuf@DU?$char_traits@D@std@@@std@@UAEXXZ PROC ; std::basic_streambuf<char,std::char_traits<char> >::_Unlock, COMDAT
; _this$ = ecx
; Line 212
	add	ecx, 4
	jmp	?_Unlock@_Mutex@std@@QAEXXZ		; std::_Mutex::_Unlock
?_Unlock@?$basic_streambuf@DU?$char_traits@D@std@@@std@@UAEXXZ ENDP ; std::basic_streambuf<char,std::char_traits<char> >::_Unlock
; Function compile flags: /Ogtp
_TEXT	ENDS
;	COMDAT ?_Lock@?$basic_streambuf@DU?$char_traits@D@std@@@std@@UAEXXZ
_TEXT	SEGMENT
?_Lock@?$basic_streambuf@DU?$char_traits@D@std@@@std@@UAEXXZ PROC ; std::basic_streambuf<char,std::char_traits<char> >::_Lock, COMDAT
; _this$ = ecx
; Line 207
	add	ecx, 4
	jmp	?_Lock@_Mutex@std@@QAEXXZ		; std::_Mutex::_Lock
?_Lock@?$basic_streambuf@DU?$char_traits@D@std@@@std@@UAEXXZ ENDP ; std::basic_streambuf<char,std::char_traits<char> >::_Lock
; Function compile flags: /Ogtp
_TEXT	ENDS
;	COMDAT ??Bsentry@?$basic_istream@DU?$char_traits@D@std@@@std@@QBEPQ_Bool_struct@2@HXZ
_TEXT	SEGMENT
??Bsentry@?$basic_istream@DU?$char_traits@D@std@@@std@@QBEPQ_Bool_struct@2@HXZ PROC ; std::basic_istream<char,std::char_traits<char> >::sentry::operator int std::_Bool_struct::*, COMDAT
; _this$ = ecx
; File c:\program files\microsoft visual studio 10.0\vc\include\istream
; Line 105
	xor	eax, eax
	cmp	BYTE PTR [ecx+4], al
	setne	al
	dec	eax
; Line 106
	ret	0
??Bsentry@?$basic_istream@DU?$char_traits@D@std@@@std@@QBEPQ_Bool_struct@2@HXZ ENDP ; std::basic_istream<char,std::char_traits<char> >::sentry::operator int std::_Bool_struct::*
; Function compile flags: /Ogtp
_TEXT	ENDS
;	COMDAT ?rdbuf@?$basic_ios@_WU?$char_traits@_W@std@@@std@@QBEPAV?$basic_streambuf@_WU?$char_traits@_W@std@@@2@XZ
_TEXT	SEGMENT
